(lp0
(lp1
Naa(lp2
(dp3
S'_par'
p4
(dp5
S's'
p6
F1e-06
sS'xa'
p7
F0.75
sS'd'
p8
(lp9
Fnan
assg8
I2
sS'_x'
p10
(lp11
cnumpy.core.multiarray
scalar
p12
(cnumpy
dtype
p13
(S'f8'
p14
I0
I1
tp15
Rp16
(I3
S'<'
p17
NNNI-1
I-1
I0
tp18
bS'\xd0R\xe4\x06d\x93\xbe?'
p19
tp20
Rp21
ag12
(g16
S'\xc0\xa8\xd5\x10\xe5Q\xd0\xbf'
p22
tp23
Rp24
asS'n'
p25
I20
sS'_per'
p26
g3
sS'overhead'
p27
F124.34874599998875
sS'_d'
p28
(dp29
saa.