(lp0
(lp1
F0.96875
aF0.40625
aa(dp2
S's'
p3
F0.0
sS'd'
p4
(lp5
Fnan
asa(dp6
S'pwr'
p7
I5
sg4
I2
sS'idx'
p8
I1015
sa(dp9
aF45.9421106300354
aF1.0
a(dp10
a(lp11
F0.1875
aF0.1875
aa(dp12
S'yinc'
p13
F0.00034722900390625
saF3.814697265625e-05
aF4.482269287109375e-05
aF0.0002009868621826172
aS'14:21:39  17-06-16'
p14
a.