(lp0
(lp1
F0.046875
aF-0.046875
aa(dp2
S's'
p3
F0.0
sS'd'
p4
(lp5
Fnan
asa(dp6
S'pwr'
p7
I6
sg4
I2
sS'idx'
p8
I2143
sa(dp9
aF0.00895601487159729
aF1.0
a(dp10
a(lp11
F0.1875
aF0.1875
aa(dp12
S'yinc'
p13
F0.00034722900390625
saF4.100799560546875e-05
aF4.601478576660156e-05
aF0.0006449222564697266
aS'14:21:46  17-06-16'
p14
a.