(lp0
(lp1
F-0.53125
aF-0.15625
aa(dp2
S's'
p3
F0.0
sS'd'
p4
(lp5
Fnan
asa(dp6
S'pwr'
p7
I5
sg4
I2
sS'idx'
p8
I238
sa(dp9
aF6.155090366363526
aF1.0
a(dp10
a(lp11
Fnan
aFnan
aa(dp12
S'didnotrun'
p13
I01
saF0.00011086463928222656
aF0.00010013580322265625
aF5.602836608886719e-05
aS'14:21:35  17-06-16'
p14
a.