(lp0
(lp1
F0.203125
aF-0.921875
aa(dp2
S's'
p3
F0.0
sS'd'
p4
(lp5
Fnan
asa(dp6
S'pwr'
p7
I6
sg4
I2
sS'idx'
p8
I2435
sa(dp9
aF3.1819407103061677
aF1.0
a(dp10
a(lp11
F0.171875
aF0.140625
aa(dp12
S'yinc'
p13
F0.00014509415626525878
saF5.91278076171875e-05
aF6.580352783203125e-05
aF0.0009560585021972656
aS'14:21:50  17-06-16'
p14
a.