(lp0
(lp1
F0.453125
aF0.078125
aa(dp2
S's'
p3
F0.0
sS'd'
p4
(lp5
Fnan
asa(dp6
S'pwr'
p7
I6
sg4
I2
sS'idx'
p8
I2979
sa(dp9
aF2.250667593240738
aF1.0
a(dp10
a(lp11
F0.203125
aF0.203125
aa(dp12
S'yinc'
p13
F2.542710304260254e-05
saF4.100799560546875e-05
aF4.7206878662109375e-05
aF0.0006289482116699219
aS'14:22:03  17-06-16'
p14
a.