(lp0
(lp1
F0.484375
aF0.859375
aa(dp2
S's'
p3
F0.0
sS'd'
p4
(lp5
Fnan
asa(dp6
S'pwr'
p7
I6
sg4
I2
sS'idx'
p8
I3068
sa(dp9
aF0.24807342743873598
aF1.0
a(dp10
a(lp11
Fnan
aFnan
aa(dp12
S'didnotrun'
p13
I01
saF3.0994415283203125e-05
aF3.4809112548828125e-05
aF2.3126602172851562e-05
aS'14:22:05  17-06-16'
p14
a.