(lp0
(lp1
F-0.53125
aF0.90625
aa(dp2
S's'
p3
F0.0
sS'd'
p4
(lp5
Fnan
asa(dp6
S'pwr'
p7
I5
sg4
I2
sS'idx'
p8
I255
sa(dp9
aF0.6506347999572754
aF1.0
a(dp10
a(lp11
F0.1875
aF0.1875
aa(dp12
S'yinc'
p13
F0.00034722900390625
saF8.606910705566406e-05
aF0.00011301040649414062
aF0.00022292137145996094
aS'14:21:36  17-06-16'
p14
a.