(lp0
(lp1
F-0.9296875
aF-0.6640625
aa(dp2
S's'
p3
F0.0
sS'd'
p4
(lp5
Fnan
asa(dp6
S'pwr'
p7
I7
sg4
I2
sS'idx'
p8
I534
sa(dp9
aF62.17383762611449
aF1.0
a(dp10
a(lp11
Fnan
aFnan
aa(dp12
S'didnotrun'
p13
I01
saF7.200241088867188e-05
aF0.00010704994201660156
aF5.698204040527344e-05
aS'14:22:35  17-06-16'
p14
a.