(lp0
(lp1
F0.28125
aF0.65625
aa(dp2
S's'
p3
F0.0
sS'd'
p4
(lp5
Fnan
asa(dp6
S'pwr'
p7
I5
sg4
I2
sS'idx'
p8
I667
sa(dp9
aF0.1701312599182129
aF1.0
a(dp10
a(lp11
F0.1875
aF0.1875
aa(dp12
S'yinc'
p13
F0.00034722900390625
saF4.482269287109375e-05
aF5.1975250244140625e-05
aF0.00017309188842773438
aS'14:21:38  17-06-16'
p14
a.