(lp0
(lp1
F0.203125
aF-0.421875
aa(dp2
S's'
p3
F0.0
sS'd'
p4
(lp5
Fnan
asa(dp6
S'pwr'
p7
I6
sg4
I2
sS'idx'
p8
I2451
sa(dp9
aF0.9865061399936677
aF1.0
a(dp10
a(lp11
F0.171875
aF0.140625
aa(dp12
S'yinc'
p13
F0.00014509415626525878
saF4.00543212890625e-05
aF4.601478576660156e-05
aF0.0005450248718261719
aS'14:21:51  17-06-16'
p14
a.