(lp0
(lp1
F-0.375
aF0.875
aa(dp2
S's'
p3
F0.0
sS'd'
p4
(lp5
Fnan
asa(dp6
S'pwr'
p7
I3
sg4
I2
sS'idx'
p8
I24
sa(dp9
aF0.0821181640625
aF1.0
a(dp10
a(lp11
Fnan
aFnan
aa(dp12
S'didnotrun'
p13
I01
saF2.5987625122070312e-05
aF3.600120544433594e-05
aF3.0040740966796875e-05
aS'14:21:27  17-06-16'
p14
a.