(lp0
(lp1
F0.703125
aF0.578125
aa(dp2
S's'
p3
F0.0
sS'd'
p4
(lp5
Fnan
asa(dp6
S'pwr'
p7
I6
sg4
I2
sS'idx'
p8
I3507
sa(dp9
aF8.972513372659684
aF1.0
a(dp10
a(lp11
F0.203125
aF0.203125
aa(dp12
S'yinc'
p13
F2.542710304260254e-05
saF5.1975250244140625e-05
aF5.1975250244140625e-05
aF0.01908111572265625
aS'14:22:14  17-06-16'
p14
a.