(lp0
(lp1
F0.703125
aF-0.703125
aa(dp2
S's'
p3
F0.0
sS'd'
p4
(lp5
Fnan
asa(dp6
S'pwr'
p7
I6
sg4
I2
sS'idx'
p8
I3466
sa(dp9
aF25.208666021585465
aF1.0
a(dp10
a(lp11
Fnan
aFnan
aa(dp12
S'didnotrun'
p13
I01
saF4.9114227294921875e-05
aF5.2928924560546875e-05
aF3.790855407714844e-05
aS'14:22:13  17-06-16'
p14
a.