(lp0
(lp1
F0.890625
aF0.953125
aa(dp2
S's'
p3
F0.0
sS'd'
p4
(lp5
Fnan
asa(dp6
S'pwr'
p7
I6
sg4
I2
sS'idx'
p8
I3903
sa(dp9
aF22.70643444275856
aF1.0
a(dp10
a(lp11
F0.203125
aF0.203125
aa(dp12
S'yinc'
p13
F2.542710304260254e-05
saF4.696846008300781e-05
aF5.3882598876953125e-05
aF0.02462005615234375
aS'14:22:22  17-06-16'
p14
a.