(lp0
(lp1
F0.484375
aF-0.421875
aa(dp2
S's'
p3
F0.0
sS'd'
p4
(lp5
Fnan
asa(dp6
S'pwr'
p7
I6
sg4
I2
sS'idx'
p8
I3027
sa(dp9
aF6.361850588083267
aF1.0
a(dp10
a(lp11
F0.203125
aF0.203125
aa(dp12
S'yinc'
p13
F2.542710304260254e-05
saF4.506111145019531e-05
aF4.887580871582031e-05
aF0.0006570816040039062
aS'14:22:05  17-06-16'
p14
a.