(lp0
(lp1
F0.1875
aF0.3125
aa(dp2
S's'
p3
F0.0
sS'd'
p4
(lp5
Fnan
asa(dp6
S'pwr'
p7
I4
sg4
I2
sS'idx'
p8
I155
sa(dp9
aF0.04673394775390625
aF1.0
a(dp10
a(lp11
F0.1875
aF0.1875
aa(dp12
S'yinc'
p13
F0.00034722900390625
saF3.886222839355469e-05
aF4.506111145019531e-05
aF7.200241088867188e-05
aS'14:21:32  17-06-16'
p14
a.