(lp0
(lp1
F-0.9296875
aF-0.9609375
aa(dp2
S's'
p3
F0.0
sS'd'
p4
(lp5
Fnan
asa(dp6
S'pwr'
p7
I7
sg4
I2
sS'idx'
p8
I515
sa(dp9
aF69.79475876106322
aF1.0
a(dp10
a(lp11
F0.203125
aF0.203125
aa(dp12
S'yinc'
p13
F2.542710304260254e-05
saF3.314018249511719e-05
aF3.790855407714844e-05
aF0.0008749961853027344
aS'14:22:35  17-06-16'
p14
a.