(lp0
(lp1
F0.234375
aF-0.921875
aa(dp2
S's'
p3
F0.0
sS'd'
p4
(lp5
Fnan
asa(dp6
S'pwr'
p7
I6
sg4
I2
sS'idx'
p8
I2499
sa(dp9
aF3.5792588064670565
aF1.0
a(dp10
a(lp11
F0.203125
aF0.203125
aa(dp12
S'yinc'
p13
F2.542710304260254e-05
saF4.00543212890625e-05
aF4.506111145019531e-05
aF0.0006229877471923828
aS'14:21:52  17-06-16'
p14
a.