(lp0
(lp1
F0.953125
aF0.734375
aa(dp2
S's'
p3
F0.0
sS'd'
p4
(lp5
Fnan
asa(dp6
S'pwr'
p7
I6
sg4
I2
sS'idx'
p8
I4024
sa(dp9
aF36.26369966721535
aF1.0
a(dp10
a(lp11
Fnan
aFnan
aa(dp12
S'didnotrun'
p13
I01
saF6.389617919921875e-05
aF7.319450378417969e-05
aF5.078315734863281e-05
aS'14:22:25  17-06-16'
p14
a.