(lp0
(lp1
F-0.03125
aF-0.84375
aa(dp2
S's'
p3
F0.0
sS'd'
p4
(lp5
Fnan
asa(dp6
S'pwr'
p7
I5
sg4
I2
sS'idx'
p8
I483
sa(dp9
aF1.8017810401916505
aF1.0
a(dp10
a(lp11
F0.1875
aF0.1875
aa(dp12
S'yinc'
p13
F0.00034722900390625
saF3.2901763916015625e-05
aF3.600120544433594e-05
aF9.703636169433594e-05
aS'14:21:37  17-06-16'
p14
a.