(lp0
(lp1
F-0.15625
aF-0.09375
aa(dp2
S's'
p3
F0.0
sS'd'
p4
(lp5
Fnan
asa(dp6
S'pwr'
p7
I5
sg4
I2
sS'idx'
p8
I431
sa(dp9
aF0.11961886978149415
aF1.0
a(dp10
a(lp11
F0.1875
aF0.1875
aa(dp12
S'yinc'
p13
F0.00034722900390625
saF3.0040740966796875e-05
aF4.291534423828125e-05
aF0.00011420249938964844
aS'14:21:37  17-06-16'
p14
a.