(lp0
(lp1
F0.75
aF0.25
aa(dp2
S's'
p3
F0.0
sS'd'
p4
(lp5
Fnan
asa(dp6
S'pwr'
p7
I2
sg4
I2
sS'idx'
p8
I15
sa(dp9
aF16.423578125
aF1.0
a(dp10
a(lp11
F0.0
aF0.0
aa(dp12
S'yinc'
p13
F0.001
saF3.0040740966796875e-05
aF3.790855407714844e-05
aF4.291534423828125e-05
aS'14:21:27  17-06-16'
p14
a.