(lp0
(lp1
F0.625
aF0.875
aa(dp2
S's'
p3
F0.0
sS'd'
p4
(lp5
Fnan
asa(dp6
S'pwr'
p7
I3
sg4
I2
sS'idx'
p8
I56
sa(dp9
aF2.9103994140625002
aF1.0
a(dp10
a(lp11
Fnan
aFnan
aa(dp12
S'didnotrun'
p13
I01
saF4.506111145019531e-05
aF5.793571472167969e-05
aF4.315376281738281e-05
aS'14:21:27  17-06-16'
p14
a.