(lp0
(lp1
F0.765625
aF0.359375
aa(dp2
S's'
p3
F0.0
sS'd'
p4
(lp5
Fnan
asa(dp6
S'pwr'
p7
I6
sg4
I2
sS'idx'
p8
I3628
sa(dp9
aF16.53995582795143
aF1.0
a(dp10
a(lp11
Fnan
aFnan
aa(dp12
S'didnotrun'
p13
I01
saF6.29425048828125e-05
aF7.510185241699219e-05
aF6.604194641113281e-05
aS'14:22:17  17-06-16'
p14
a.