(lp0
(lp1
F0.046875
aF0.328125
aa(dp2
S's'
p3
F0.0
sS'd'
p4
(lp5
Fnan
asa(dp6
S'pwr'
p7
I6
sg4
I2
sS'idx'
p8
I2155
sa(dp9
aF0.2520285246372223
aF1.0
a(dp10
a(lp11
F0.1875
aF0.1875
aa(dp12
S'yinc'
p13
F0.00034722900390625
saF4.100799560546875e-05
aF4.506111145019531e-05
aF0.0005388259887695312
aS'14:21:46  17-06-16'
p14
a.