(lp0
(lp1
F0.59375
aF-0.09375
aa(dp2
S's'
p3
F0.0
sS'd'
p4
(lp5
Fnan
asa(dp6
S'pwr'
p7
I5
sg4
I2
sS'idx'
p8
I815
sa(dp9
aF8.619848972320558
aF1.0
a(dp10
a(lp11
F0.1875
aF0.1875
aa(dp12
S'yinc'
p13
F0.00034722900390625
saF2.6941299438476562e-05
aF3.0994415283203125e-05
aF9.894371032714844e-05
aS'14:21:38  17-06-16'
p14
a.