(lp0
(lp1
F-0.8359375
aF-0.8359375
aa(dp2
S's'
p3
F0.0
sS'd'
p4
(lp5
Fnan
asa(dp6
S'pwr'
p7
I7
sg4
I2
sS'idx'
p8
I1291
sa(dp9
aF46.89680636300147
aF1.0
a(dp10
a(lp11
F0.203125
aF0.203125
aa(dp12
S'yinc'
p13
F2.542710304260254e-05
saF3.0994415283203125e-05
aF3.504753112792969e-05
aF0.0008478164672851562
aS'14:22:55  17-06-16'
p14
a.