(lp0
(lp1
F-0.5625
aF0.3125
aa(dp2
S's'
p3
F0.0
sS'd'
p4
(lp5
Fnan
asa(dp6
S'pwr'
p7
I4
sg4
I2
sS'idx'
p8
I59
sa(dp9
aF4.043809143066406
aF1.0
a(dp10
a(lp11
F0.0
aF0.0
aa(dp12
S'yinc'
p13
F0.001
saF6.008148193359375e-05
aF6.604194641113281e-05
aF0.0001437664031982422
aS'14:21:28  17-06-16'
p14
a.