(lp0
(lp1
F-0.8046875
aF-0.0078125
aa(dp2
S's'
p3
F0.0
sS'd'
p4
(lp5
Fnan
asa(dp6
S'pwr'
p7
I7
sg4
I2
sS'idx'
p8
I1600
sa(dp9
aF26.357150714531542
aF1.0
a(dp10
a(lp11
Fnan
aFnan
aa(dp12
S'didnotrun'
p13
I01
saF0.0001049041748046875
aF9.894371032714844e-05
aF5.602836608886719e-05
aS'14:23:03  17-06-16'
p14
a.