(lp0
(lp1
F0.6875
aF-0.1875
aa(dp2
S's'
p3
F0.0
sS'd'
p4
(lp5
Fnan
asa(dp6
S'pwr'
p7
I4
sg4
I2
sS'idx'
p8
I215
sa(dp9
aF16.272153869628905
aF1.0
a(dp10
a(lp11
F0.1875
aF0.1875
aa(dp12
S'yinc'
p13
F0.00034722900390625
saF4.601478576660156e-05
aF5.1021575927734375e-05
aF9.584426879882812e-05
aS'14:21:32  17-06-16'
p14
a.