(lp0
(lp1
F-0.828125
aF-0.203125
aa(dp2
S's'
p3
F0.0
sS'd'
p4
(lp5
Fnan
asa(dp6
S'pwr'
p7
I6
sg4
I2
sS'idx'
p8
I346
sa(dp9
aF33.00644026017189
aF1.0
a(dp10
a(lp11
Fnan
aFnan
aa(dp12
S'didnotrun'
p13
I01
saF5.221366882324219e-05
aF5.4836273193359375e-05
aF3.314018249511719e-05
aS'14:21:39  17-06-16'
p14
a.