(lp0
(lp1
F-0.8828125
aF-0.0234375
aa(dp2
S's'
p3
F0.0
sS'd'
p4
(lp5
Fnan
asa(dp6
S'pwr'
p7
I7
sg4
I2
sS'idx'
p8
I959
sa(dp9
aF38.449762396946554
aF1.0
a(dp10
a(lp11
F0.203125
aF0.203125
aa(dp12
S'yinc'
p13
F2.542710304260254e-05
saF5.91278076171875e-05
aF5.984306335449219e-05
aF0.001711130142211914
aS'14:22:47  17-06-16'
p14
a.