(lp0
(lp1
F0.5
aF-0.5
aa(dp2
S's'
p3
F0.0
sS'd'
p4
(lp5
Fnan
asa(dp6
S'pwr'
p7
I1
sg4
I2
sS'idx'
p8
I3
sa(dp9
aF7.6585
aF1.0
a(dp10
a(lp11
F0.0
aF0.0
aa(dp12
S'yinc'
p13
F0.001
saF3.314018249511719e-05
aF3.886222839355469e-05
aF4.696846008300781e-05
aS'14:21:27  17-06-16'
p14
a.