(lp0
(lp1
F-0.8359375
aF0.4140625
aa(dp2
S's'
p3
F0.0
sS'd'
p4
(lp5
Fnan
asa(dp6
S'pwr'
p7
I7
sg4
I2
sS'idx'
p8
I1371
sa(dp9
aF23.741212490931154
aF1.0
a(dp10
a(lp11
F0.203125
aF0.203125
aa(dp12
S'yinc'
p13
F2.542710304260254e-05
saF2.7894973754882812e-05
aF3.600120544433594e-05
aF0.0008471012115478516
aS'14:22:56  17-06-16'
p14
a.