(lp0
(lp1
F-0.1875
aF-0.1875
aa(dp2
S's'
p3
F0.0
sS'd'
p4
(lp5
Fnan
asa(dp6
S'pwr'
p7
I4
sg4
I2
sS'idx'
p8
I103
sa(dp9
aF0.33368707275390624
aF1.0
a(dp10
a(lp11
F0.0
aF0.0
aa(dp12
S'yinc'
p13
F0.001
saF4.00543212890625e-05
aF4.482269287109375e-05
aF6.794929504394531e-05
aS'14:21:30  17-06-16'
p14
a.