(lp0
(lp1
F-0.765625
aF0.203125
aa(dp2
S's'
p3
F0.0
sS'd'
p4
(lp5
Fnan
asa(dp6
S'pwr'
p7
I6
sg4
I2
sS'idx'
p8
I487
sa(dp9
aF18.625313799142837
aF1.0
a(dp10
a(lp11
F0.1875
aF0.1875
aa(dp12
S'yinc'
p13
F0.00034722900390625
saF3.910064697265625e-05
aF4.982948303222656e-05
aF0.0002391338348388672
aS'14:21:39  17-06-16'
p14
a.