(lp0
(lp1
F0.765625
aF-0.671875
aa(dp2
S's'
p3
F0.0
sS'd'
p4
(lp5
Fnan
asa(dp6
S'pwr'
p7
I6
sg4
I2
sS'idx'
p8
I3595
sa(dp9
aF32.45811531281471
aF1.0
a(dp10
a(lp11
F0.203125
aF0.203125
aa(dp12
S'yinc'
p13
F2.542710304260254e-05
saF2.6226043701171875e-05
aF3.695487976074219e-05
aF0.0005190372467041016
aS'14:22:16  17-06-16'
p14
a.