(lp0
(lp1
F-0.234375
aF-0.421875
aa(dp2
S's'
p3
F0.0
sS'd'
p4
(lp5
Fnan
asa(dp6
S'pwr'
p7
I6
sg4
I2
sS'idx'
p8
I1555
sa(dp9
aF1.2176132986545563
aF1.0
a(dp10
a(lp11
F0.1875
aF0.1875
aa(dp12
S'yinc'
p13
F0.00034722900390625
saF4.1961669921875e-05
aF5.602836608886719e-05
aF0.0004489421844482422
aS'14:21:41  17-06-16'
p14
a.