(lp0
(lp1
F-0.359375
aF0.515625
aa(dp2
S's'
p3
F0.0
sS'd'
p4
(lp5
Fnan
asa(dp6
S'pwr'
p7
I6
sg4
I2
sS'idx'
p8
I1329
sa(dp9
aF0.05015506958961487
aF1.0
a(dp10
a(lp11
Fnan
aFnan
aa(dp12
S'didnotrun'
p13
I01
saF4.982948303222656e-05
aF5.507469177246094e-05
aF3.910064697265625e-05
aS'14:21:41  17-06-16'
p14
a.