(lp0
(lp1
F-0.4375
aF0.3125
aa(dp2
S's'
p3
F0.0
sS'd'
p4
(lp5
Fnan
asa(dp6
S'pwr'
p7
I4
sg4
I2
sS'idx'
p8
I75
sa(dp9
aF1.0487114868164062
aF1.0
a(dp10
a(lp11
F0.0
aF0.0
aa(dp12
S'yinc'
p13
F0.001
saF3.600120544433594e-05
aF4.792213439941406e-05
aF7.009506225585938e-05
aS'14:21:29  17-06-16'
p14
a.