(lp0
(lp1
F0.953125
aF-0.046875
aa(dp2
S's'
p3
F0.0
sS'd'
p4
(lp5
Fnan
asa(dp6
S'pwr'
p7
I6
sg4
I2
sS'idx'
p8
I3999
sa(dp9
aF52.66403688645363
aF1.0
a(dp10
a(lp11
F0.203125
aF0.203125
aa(dp12
S'yinc'
p13
F2.542710304260254e-05
saF4.291534423828125e-05
aF4.792213439941406e-05
aF0.0014750957489013672
aS'14:22:25  17-06-16'
p14
a.