(lp0
(lp1
F0.203125
aF0.203125
aa(dp2
S's'
p3
F0.0
sS'd'
p4
(lp5
Fnan
asa(dp6
S'pwr'
p7
I6
sg4
I2
sS'idx'
p8
I2471
sa(dp9
aF2.542710304260254e-05
aF1.0
a(dp10
ag1
a(dp11
S'yinc'
p12
F2.542710304260254e-05
saF5.0067901611328125e-05
aF5.3882598876953125e-05
aF0.0006439685821533203
aS'14:21:51  17-06-16'
p13
a.