(lp0
(lp1
F-0.96875
aF0.90625
aa(dp2
S's'
p3
F0.0
sS'd'
p4
(lp5
Fnan
asa(dp6
S'pwr'
p7
I5
sg4
I2
sS'idx'
p8
I31
sa(dp9
aF35.8711535987854
aF1.0
a(dp10
a(lp11
F0.1875
aF0.1875
aa(dp12
S'yinc'
p13
F0.00034722900390625
saF4.100799560546875e-05
aF4.696846008300781e-05
aF8.296966552734375e-05
aS'14:21:33  17-06-16'
p14
a.