(lp0
(lp1
F-0.7578125
aF-0.1953125
aa(dp2
S's'
p3
F0.0
sS'd'
p4
(lp5
Fnan
asa(dp6
S'pwr'
p7
I7
sg4
I2
sS'idx'
p8
I1972
sa(dp9
aF23.534732542172076
aF1.0
a(dp10
a(lp11
Fnan
aFnan
aa(dp12
S'didnotrun'
p13
I01
saF5.793571472167969e-05
aF0.0001270771026611328
aF5.2928924560546875e-05
aS'14:23:10  17-06-16'
p14
a.