(lp0
(lp1
F-0.7109375
aF-0.6171875
aa(dp2
S's'
p3
F0.0
sS'd'
p4
(lp5
Fnan
asa(dp6
S'pwr'
p7
I7
sg4
I2
sS'idx'
p8
I2329
sa(dp9
aF24.738058313265444
aF1.0
a(dp10
a(lp11
Fnan
aFnan
aa(dp12
S'didnotrun'
p13
I01
saF3.600120544433594e-05
aF3.600120544433594e-05
aF2.8133392333984375e-05
aS'14:23:12  17-06-16'
p14
a.