(lp0
(lp1
F-0.328125
aF-0.046875
aa(dp2
S's'
p3
F0.0
sS'd'
p4
(lp5
Fnan
asa(dp6
S'pwr'
p7
I6
sg4
I2
sS'idx'
p8
I1375
sa(dp9
aF0.8631353590488434
aF1.0
a(dp10
a(lp11
F0.1875
aF0.1875
aa(dp12
S'yinc'
p13
F0.00034722900390625
saF2.9087066650390625e-05
aF3.790855407714844e-05
aF0.000308990478515625
aS'14:21:41  17-06-16'
p14
a.