(lp0
(lp1
F-0.7734375
aF0.8515625
aa(dp2
S's'
p3
F0.0
sS'd'
p4
(lp5
Fnan
asa(dp6
S'pwr'
p7
I7
sg4
I2
sS'idx'
p8
I1911
sa(dp9
aF11.466969281569124
aF1.0
a(dp10
a(lp11
F0.203125
aF0.203125
aa(dp12
S'yinc'
p13
F2.542710304260254e-05
saF2.5987625122070312e-05
aF3.600120544433594e-05
aF0.0009920597076416016
aS'14:23:10  17-06-16'
p14
a.