(lp0
(lp1
F-0.9453125
aF-0.7734375
aa(dp2
S's'
p3
F0.0
sS'd'
p4
(lp5
Fnan
asa(dp6
S'pwr'
p7
I7
sg4
I2
sS'idx'
p8
I399
sa(dp9
aF68.71652143253387
aF1.0
a(dp10
a(lp11
F0.203125
aF0.203125
aa(dp12
S'yinc'
p13
F2.542710304260254e-05
saF4.315376281738281e-05
aF4.38690185546875e-05
aF0.0008661746978759766
aS'14:22:33  17-06-16'
p14
a.