(lp0
(lp1
F0.4375
aF-0.8125
aa(dp2
S's'
p3
F0.0
sS'd'
p4
(lp5
Fnan
asa(dp6
S'pwr'
p7
I4
sg4
I2
sS'idx'
p8
I178
sa(dp9
aF7.829512268066407
aF1.0
a(dp10
a(lp11
Fnan
aFnan
aa(dp12
S'didnotrun'
p13
I01
saF2.7179718017578125e-05
aF3.4809112548828125e-05
aF9.417533874511719e-05
aS'14:21:32  17-06-16'
p14
a.