(lp0
(lp1
F-0.8046875
aF-0.8671875
aa(dp2
S's'
p3
F0.0
sS'd'
p4
(lp5
Fnan
asa(dp6
S'pwr'
p7
I7
sg4
I2
sS'idx'
p8
I1545
sa(dp9
aF42.14863840831816
aF1.0
a(dp10
a(lp11
Fnan
aFnan
aa(dp12
S'didnotrun'
p13
I01
saF4.315376281738281e-05
aF5.888938903808594e-05
aF4.100799560546875e-05
aS'14:23:01  17-06-16'
p14
a.