(lp0
(lp1
F0.984375
aF0.328125
aa(dp2
S's'
p3
F0.0
sS'd'
p4
(lp5
Fnan
asa(dp6
S'pwr'
p7
I6
sg4
I2
sS'idx'
p8
I4075
sa(dp9
aF51.02011886811257
aF1.0
a(dp10
a(lp11
F0.203125
aF0.203125
aa(dp12
S'yinc'
p13
F2.542710304260254e-05
saF4.00543212890625e-05
aF4.601478576660156e-05
aF0.0008130073547363281
aS'14:22:27  17-06-16'
p14
a.