(lp0
(lp1
F-0.96875
aF0.40625
aa(dp2
S's'
p3
F0.0
sS'd'
p4
(lp5
Fnan
asa(dp6
S'pwr'
p7
I5
sg4
I2
sS'idx'
p8
I23
sa(dp9
aF45.961485630035405
aF1.0
a(dp10
a(lp11
F0.1875
aF0.1875
aa(dp12
S'yinc'
p13
F0.00034722900390625
saF5.888938903808594e-05
aF6.699562072753906e-05
aF0.000141143798828125
aS'14:21:33  17-06-16'
p14
a.