(lp0
(lp1
F-0.46875
aF-0.71875
aa(dp2
S's'
p3
F0.0
sS'd'
p4
(lp5
Fnan
asa(dp6
S'pwr'
p7
I5
sg4
I2
sS'idx'
p8
I261
sa(dp9
aF8.268381381988526
aF1.0
a(dp10
a(lp11
Fnan
aFnan
aa(dp12
S'didnotrun'
p13
I01
saF7.510185241699219e-05
aF7.581710815429688e-05
aF8.106231689453125e-05
aS'14:21:36  17-06-16'
p14
a.