(lp0
(lp1
F0.484375
aF-0.484375
aa(dp2
S's'
p3
F0.0
sS'd'
p4
(lp5
Fnan
asa(dp6
S'pwr'
p7
I6
sg4
I2
sS'idx'
p8
I3025
sa(dp9
aF6.8700445578098295
aF1.0
a(dp10
a(lp11
Fnan
aFnan
aa(dp12
S'didnotrun'
p13
I01
saF6.985664367675781e-05
aF6.508827209472656e-05
aF0.00010895729064941406
aS'14:22:05  17-06-16'
p14
a.