(lp0
(lp1
F-0.53125
aF0.78125
aa(dp2
S's'
p3
F0.0
sS'd'
p4
(lp5
Fnan
asa(dp6
S'pwr'
p7
I5
sg4
I2
sS'idx'
p8
I253
sa(dp9
aF1.0052490577697755
aF1.0
a(dp10
a(lp11
Fnan
aFnan
aa(dp12
S'didnotrun'
p13
I01
saF7.796287536621094e-05
aF0.00011801719665527344
aF7.295608520507812e-05
aS'14:21:36  17-06-16'
p14
a.