(lp0
(lp1
F-0.359375
aF-0.296875
aa(dp2
S's'
p3
F0.0
sS'd'
p4
(lp5
Fnan
asa(dp6
S'pwr'
p7
I6
sg4
I2
sS'idx'
p8
I1303
sa(dp9
aF2.2291864416599276
aF1.0
a(dp10
a(lp11
F0.1875
aF0.1875
aa(dp12
S'yinc'
p13
F0.00034722900390625
saF4.315376281738281e-05
aF4.291534423828125e-05
aF0.0002779960632324219
aS'14:21:41  17-06-16'
p14
a.