(lp0
(lp1
F-0.7109375
aF0.8984375
aa(dp2
S's'
p3
F0.0
sS'd'
p4
(lp5
Fnan
asa(dp6
S'pwr'
p7
I7
sg4
I2
sS'idx'
p8
I2426
sa(dp9
aF6.652592882052064
aF1.0
a(dp10
a(lp11
Fnan
aFnan
aa(dp12
S'didnotrun'
p13
I01
saF4.506111145019531e-05
aF4.38690185546875e-05
aF3.695487976074219e-05
aS'14:23:12  17-06-16'
p14
a.