(lp0
(lp1
F-0.71875
aF-0.59375
aa(dp2
S's'
p3
F0.0
sS'd'
p4
(lp5
Fnan
asa(dp6
S'pwr'
p7
I5
sg4
I2
sS'idx'
p8
I135
sa(dp9
aF25.250578037261963
aF1.0
a(dp10
a(lp11
F0.1875
aF0.1875
aa(dp12
S'yinc'
p13
F0.00034722900390625
saF2.5987625122070312e-05
aF3.504753112792969e-05
aF6.413459777832031e-05
aS'14:21:35  17-06-16'
p14
a.