(lp0
(lp1
F0.359375
aF-0.078125
aa(dp2
S's'
p3
F0.0
sS'd'
p4
(lp5
Fnan
asa(dp6
S'pwr'
p7
I6
sg4
I2
sS'idx'
p8
I2782
sa(dp9
aF1.3106296179294585
aF1.0
a(dp10
a(lp11
Fnan
aFnan
aa(dp12
S'didnotrun'
p13
I01
saF5.1975250244140625e-05
aF0.00011110305786132812
aF5.078315734863281e-05
aS'14:22:00  17-06-16'
p14
a.