(lp0
(lp1
F-0.53125
aF-0.03125
aa(dp2
S's'
p3
F0.0
sS'd'
p4
(lp5
Fnan
asa(dp6
S'pwr'
p7
I5
sg4
I2
sS'idx'
p8
I240
sa(dp9
aF5.214538608551026
aF1.0
a(dp10
a(lp11
Fnan
aFnan
aa(dp12
S'didnotrun'
p13
I01
saF0.0001010894775390625
aF9.608268737792969e-05
aF7.295608520507812e-05
aS'14:21:35  17-06-16'
p14
a.