(lp0
(lp1
F-0.8359375
aF0.8515625
aa(dp2
S's'
p3
F0.0
sS'd'
p4
(lp5
Fnan
asa(dp6
S'pwr'
p7
I7
sg4
I2
sS'idx'
p8
I1399
sa(dp9
aF17.482457760706545
aF1.0
a(dp10
a(lp11
F0.203125
aF0.203125
aa(dp12
S'yinc'
p13
F2.542710304260254e-05
saF2.6941299438476562e-05
aF3.1948089599609375e-05
aF0.0006661415100097656
aS'14:22:56  17-06-16'
p14
a.