(lp0
(lp1
F0.59375
aF0.65625
aa(dp2
S's'
p3
F0.0
sS'd'
p4
(lp5
Fnan
asa(dp6
S'pwr'
p7
I5
sg4
I2
sS'idx'
p8
I827
sa(dp9
aF3.0644290504455567
aF1.0
a(dp10
a(lp11
F0.1875
aF0.1875
aa(dp12
S'yinc'
p13
F0.00034722900390625
saF2.4080276489257812e-05
aF3.409385681152344e-05
aF9.989738464355469e-05
aS'14:21:38  17-06-16'
p14
a.