(lp0
(lp1
F0.890625
aF-0.265625
aa(dp2
S's'
p3
F0.0
sS'd'
p4
(lp5
Fnan
asa(dp6
S'pwr'
p7
I6
sg4
I2
sS'idx'
p8
I3864
sa(dp9
aF44.77991314148903
aF1.0
a(dp10
a(lp11
Fnan
aFnan
aa(dp12
S'didnotrun'
p13
I01
saF2.5987625122070312e-05
aF3.719329833984375e-05
aF2.193450927734375e-05
aS'14:22:22  17-06-16'
p14
a.