(lp0
(lp1
F0.0625
aF-0.6875
aa(dp2
S's'
p3
F0.0
sS'd'
p4
(lp5
Fnan
asa(dp6
S'pwr'
p7
I4
sg4
I2
sS'idx'
p8
I131
sa(dp9
aF1.2502056274414062
aF1.0
a(dp10
a(lp11
F0.0
aF0.0
aa(dp12
S'yinc'
p13
F0.001
saF3.790855407714844e-05
aF4.220008850097656e-05
aF6.580352783203125e-05
aS'14:21:31  17-06-16'
p14
a.