(lp0
(lp1
F0.90625
aF-0.71875
aa(dp2
S's'
p3
F0.0
sS'd'
p4
(lp5
Fnan
asa(dp6
S'pwr'
p7
I5
sg4
I2
sS'idx'
p8
I965
sa(dp9
aF58.21874423599243
aF1.0
a(dp10
a(lp11
Fnan
aFnan
aa(dp12
S'didnotrun'
p13
I01
saF5.1975250244140625e-05
aF6.103515625e-05
aF4.291534423828125e-05
aS'14:21:39  17-06-16'
p14
a.