(lp0
(lp1
F-0.40625
aF0.90625
aa(dp2
S's'
p3
F0.0
sS'd'
p4
(lp5
Fnan
asa(dp6
S'pwr'
p7
I5
sg4
I2
sS'idx'
p8
I319
sa(dp9
aF0.02561313247680664
aF1.0
a(dp10
a(lp11
F0.1875
aF0.1875
aa(dp12
S'yinc'
p13
F0.00034722900390625
saF2.7179718017578125e-05
aF3.4809112548828125e-05
aF7.510185241699219e-05
aS'14:21:37  17-06-16'
p14
a.