(lp0
(lp1
F-0.9453125
aF0.8984375
aa(dp2
S's'
p3
F0.0
sS'd'
p4
(lp5
Fnan
asa(dp6
S'pwr'
p7
I7
sg4
I2
sS'idx'
p8
I506
sa(dp9
aF31.88863771213591
aF1.0
a(dp10
a(lp11
Fnan
aFnan
aa(dp12
S'didnotrun'
p13
I01
saF6.890296936035156e-05
aF6.699562072753906e-05
aF4.9114227294921875e-05
aS'14:22:34  17-06-16'
p14
a.