(lp0
(lp1
F0.953125
aF0.796875
aa(dp2
S's'
p3
F0.0
sS'd'
p4
(lp5
Fnan
asa(dp6
S'pwr'
p7
I6
sg4
I2
sS'idx'
p8
I4026
sa(dp9
aF35.083508627176286
aF1.0
a(dp10
a(lp11
Fnan
aFnan
aa(dp12
S'didnotrun'
p13
I01
saF9.512901306152344e-05
aF0.00011086463928222656
aF7.510185241699219e-05
aS'14:22:25  17-06-16'
p14
a.