(lp0
(lp1
cnumpy.core.multiarray
scalar
p2
(cnumpy
dtype
p3
(S'f8'
p4
I0
I1
tp5
Rp6
(I3
S'<'
p7
NNNI-1
I-1
I0
tp8
bS'\xf8\x07\x10\xfc\x85\x12\xd3?'
p9
tp10
Rp11
ag2
(g6
S'\\\xcdn~N\xe2\xe2?'
p12
tp13
Rp14
aa(dp15
S's'
p16
F1e-12
sS'xa'
p17
F0.8763439596118174
sS'd'
p18
(lp19
Fnan
asa(dp20
g18
I2
sS'n'
p21
I3
sa(dp22
ag2
(g6
S'\xf0#\xb8\xef*\xf9\xdf?'
p23
tp24
Rp25
ag2
(g6
S'\x8fg\xb4\x04\xac\x95\xe0?'
p26
tp27
Rp28
a(dp29
a(lp30
Fnan
aFnan
aa(dp31
S'didnotrun'
p32
I01
saF8.797645568847656e-05
aF0.00010895729064941406
aF5.221366882324219e-05
aS'17:36:18  19-07-16'
p33
a.