(lp0
(lp1
cnumpy.core.multiarray
scalar
p2
(cnumpy
dtype
p3
(S'f8'
p4
I0
I1
tp5
Rp6
(I3
S'<'
p7
NNNI-1
I-1
I0
tp8
bS'@\t|9\x91\x01\xc1\xbf'
p9
tp10
Rp11
ag2
(g6
S'\xfc\x8d\xd3\xb3\x11\xf3\xeb?'
p12
tp13
Rp14
aa(dp15
S's'
p16
F1e-12
sS'xa'
p17
F0.18350204572085183
sS'd'
p18
(lp19
Fnan
asa(dp20
g18
I2
sS'n'
p21
I2
sa(dp22
ag2
(g6
S'\xa1\xefP\x97\xbcX\xe9\xbf'
p23
tp24
Rp25
ag2
(g6
S'\x8b\xae}\xbf\xb4\xe2\xeb?'
p26
tp27
Rp28
a(dp29
a(lp30
Fnan
aFnan
aa(dp31
S'didnotrun'
p32
I01
saF9.012222290039062e-05
aF0.00011205673217773438
aF3.886222839355469e-05
aS'17:36:18  19-07-16'
p33
a.