(lp0
(lp1
cnumpy.core.multiarray
scalar
p2
(cnumpy
dtype
p3
(S'f8'
p4
I0
I1
tp5
Rp6
(I3
S'<'
p7
NNNI-1
I-1
I0
tp8
bS'\xee\xa8V]\x19v\xe1\xbf'
p9
tp10
Rp11
ag2
(g6
S'\x18\xae\xd0\xef\x06\x1e\xc3\xbf'
p12
tp13
Rp14
aa(dp15
S's'
p16
F1e-12
sS'xa'
p17
F0.7569002505164508
sS'd'
p18
(lp19
Fnan
asa(dp20
g18
I2
sS'n'
p21
I8
sa(dp22
ag2
(g6
S'G(\x03\xbap\xef\xc9?'
p23
tp24
Rp25
ag2
(g6
S'\x1f\x8e\x059\x91#\xe2?'
p26
tp27
Rp28
a(dp29
a(lp30
Fnan
aFnan
aa(dp31
S'didnotrun'
p32
I01
saF8.606910705566406e-05
aF0.00011587142944335938
aF5.412101745605469e-05
aS'17:36:18  19-07-16'
p33
a.