(lp0
(lp1
cnumpy.core.multiarray
scalar
p2
(cnumpy
dtype
p3
(S'f8'
p4
I0
I1
tp5
Rp6
(I3
S'<'
p7
NNNI-1
I-1
I0
tp8
bS'\xb2\xf7\xf3(>\xd9\xef\xbf'
p9
tp10
Rp11
ag2
(g6
S'\xd6\xb6)\xfd\x0b\xf6\xef\xbf'
p12
tp13
Rp14
aa(dp15
S's'
p16
F1e-12
sS'xa'
p17
F0.3370984050266951
sS'd'
p18
(lp19
Fnan
asa(dp20
g18
I2
sS'n'
p21
I1
sa(dp22
ag2
(g6
S'F\x06rq\xfc\xd4\xc6\xbf'
p23
tp24
Rp25
ag2
(g6
S'>`\x04\x1c\xf2\xd9\xe8?'
p26
tp27
Rp28
a(dp29
a(lp30
Fnan
aFnan
aa(dp31
S'didnotrun'
p32
I01
saF0.00010180473327636719
aF0.00017309188842773438
aF4.38690185546875e-05
aS'17:36:18  19-07-16'
p33
a.