(lp0
(lp1
cnumpy.core.multiarray
scalar
p2
(cnumpy
dtype
p3
(S'f8'
p4
I0
I1
tp5
Rp6
(I3
S'<'
p7
NNNI-1
I-1
I0
tp8
bS'\xc8N?\xb5\xe5\x9b\xde\xbf'
p9
tp10
Rp11
ag2
(g6
S'\xd4i\xe7\xc8\xf9\xd0\xde?'
p12
tp13
Rp14
aa(dp15
S's'
p16
F1e-12
sS'xa'
p17
F0.8614784908582552
sS'd'
p18
(lp19
Fnan
asa(dp20
g18
I2
sS'n'
p21
I5
sa(dp22
ag2
(g6
S'SV#\x97\xb2\t\xcb?'
p23
tp24
Rp25
ag2
(g6
S'\x1f\x91\xf9\xb0E\xc5\xe0?'
p26
tp27
Rp28
a(dp29
a(lp30
Fnan
aFnan
aa(dp31
S'didnotrun'
p32
I01
saF8.797645568847656e-05
aF0.00010800361633300781
aF3.790855407714844e-05
aS'17:36:18  19-07-16'
p33
a.