(lp0
(lp1
cnumpy.core.multiarray
scalar
p2
(cnumpy
dtype
p3
(S'f8'
p4
I0
I1
tp5
Rp6
(I3
S'<'
p7
NNNI-1
I-1
I0
tp8
bS'\x0c\x0e\xc4&\x17b\xdc?'
p9
tp10
Rp11
ag2
(g6
S'\xe8*~\x92i\x02\xe2?'
p12
tp13
Rp14
aa(dp15
S's'
p16
F1e-12
sS'xa'
p17
F0.03070727609863111
sS'd'
p18
(lp19
Fnan
asa(dp20
g18
I2
sS'n'
p21
I7
sa(dp22
ag2
(g6
S'\xfe\xfa\xfa\xc3\xb0`\xeb?'
p23
tp24
Rp25
ag2
(g6
S'\x1a&r\x8d}E\xef?'
p26
tp27
Rp28
a(dp29
a(lp30
Fnan
aFnan
aa(dp31
S'didnotrun'
p32
I01
saF8.702278137207031e-05
aF0.00010704994201660156
aF3.600120544433594e-05
aS'17:36:18  19-07-16'
p33
a.