(lp0
(lp1
cnumpy.core.multiarray
scalar
p2
(cnumpy
dtype
p3
(S'f8'
p4
I0
I1
tp5
Rp6
(I3
S'<'
p7
NNNI-1
I-1
I0
tp8
bS'\xa8\xc2.\x8c\x9a"\xd1?'
p9
tp10
Rp11
ag2
(g6
S'4(\xf8\xb8P\xf8\xe2?'
p12
tp13
Rp14
aa(dp15
S's'
p16
F1e-12
sS'xa'
p17
F0.7730678335882901
sS'd'
p18
(lp19
Fnan
asa(dp20
g18
I2
sS'n'
p21
I4
sa(dp22
ag2
(g6
S'l\x94\xfb/\x01\x97\xe2?'
p23
tp24
Rp25
ag2
(g6
S'\xfd\xa82\xd0\x99\xeb\xe1?'
p26
tp27
Rp28
a(dp29
a(lp30
Fnan
aFnan
aa(dp31
S'didnotrun'
p32
I01
saF8.702278137207031e-05
aF0.00010895729064941406
aF3.719329833984375e-05
aS'17:36:18  19-07-16'
p33
a.