(lp0
(lp1
cnumpy.core.multiarray
scalar
p2
(cnumpy
dtype
p3
(S'f8'
p4
I0
I1
tp5
Rp6
(I3
S'<'
p7
NNNI-1
I-1
I0
tp8
bS'6-\xa6\xa4 /\xe2\xbf'
p9
tp10
Rp11
ag2
(g6
S'x\xdbX\xa6\xdd\x06\xea\xbf'
p12
tp13
Rp14
aa(dp15
S's'
p16
F1e-12
sS'xa'
p17
F0.30170808514314584
sS'd'
p18
(lp19
Fnan
asa(dp20
g18
I2
sS'n'
p21
I9
sa(dp22
ag2
(g6
S' \x92\x11C\x00\x88\xe5\xbf'
p23
tp24
Rp25
ag2
(g6
S'\x99\x81\xfe\xf9\x11\x85\xe9?'
p26
tp27
Rp28
a(dp29
a(lp30
Fnan
aFnan
aa(dp31
S'didnotrun'
p32
I01
saF8.702278137207031e-05
aF0.00010895729064941406
aF3.814697265625e-05
aS'17:36:18  19-07-16'
p33
a.