(lp0
(lp1
cnumpy.core.multiarray
scalar
p2
(cnumpy
dtype
p3
(S'f8'
p4
I0
I1
tp5
Rp6
(I3
S'<'
p7
NNNI-1
I-1
I0
tp8
bS'\x8c\x01\x94\xd7\xbe\x8e\xd0\xbf'
p9
tp10
Rp11
ag2
(g6
S'\xb0\x14\xf2;\xccU\xe0\xbf'
p12
tp13
Rp14
aa(dp15
S's'
p16
F1e-12
sS'xa'
p17
F0.9766523274450774
sS'd'
p18
(lp19
Fnan
asa(dp20
g18
I2
sS'n'
p21
I10
sa(dp22
ag2
(g6
S'\x08b\xb2\x1a\n\x9f\xee\xbf'
p23
tp24
Rp25
ag2
(g6
S'$\x9f\x0f\x9e\xf7\xc3\xde?'
p26
tp27
Rp28
a(dp29
a(lp30
Fnan
aFnan
aa(dp31
S'didnotrun'
p32
I01
saF8.797645568847656e-05
aF0.00010704994201660156
aF4.696846008300781e-05
aS'17:36:18  19-07-16'
p33
a.