(lp0
(lp1
cnumpy.core.multiarray
scalar
p2
(cnumpy
dtype
p3
(S'f8'
p4
I0
I1
tp5
Rp6
(I3
S'<'
p7
NNNI-1
I-1
I0
tp8
bS'\xf0)\xa1\t\xfc\xe8\xca?'
p9
tp10
Rp11
ag2
(g6
S'X?\x18\x1b\xfbm\xe6\xbf'
p12
tp13
Rp14
aa(dp15
S's'
p16
F1e-12
sS'xa'
p17
F0.5858269650691219
sS'd'
p18
(lp19
Fnan
asa(dp20
g18
I2
sS'n'
p21
I6
sa(dp22
ag2
(g6
S'\xea\xb0-\x18*\xfd\x02\xc0'
p23
tp24
Rp25
ag2
(g6
S'\x1cx\x88#E\x9f\xe4?'
p26
tp27
Rp28
a(dp29
a(lp30
Fnan
aFnan
aa(dp31
S'didnotrun'
p32
I01
saF8.606910705566406e-05
aF0.0001068115234375
aF3.719329833984375e-05
aS'17:36:18  19-07-16'
p33
a.