(lp0
(lp1
cnumpy.core.multiarray
scalar
p2
(cnumpy
dtype
p3
(S'f8'
p4
I0
I1
tp5
Rp6
(I3
S'<'
p7
NNNI-1
I-1
I0
tp8
bS'\xa8FI\x10\x81\x15\xc9?'
p9
tp10
Rp11
ag2
(g6
S'\xf69\xc4\x8e\x15\xae\xec\xbf'
p12
tp13
Rp14
ag2
(g6
S'\x00\x001\xd5;\xf2\xf3>'
p15
tp16
Rp17
aa(dp18
S's'
p19
F1e-09
sS'd'
p20
(lp21
Fnan
asa(dp22
g20
I3
sS'n'
p23
I1
sa(dp24
ag2
(g6
S'Z\xd7Q\xf6\xc5 \x0b@'
p25
tp26
Rp27
aF1.0
a(dp28
a(lp29
Fnan
aFnan
aFnan
aa(dp30
S'didnotrun'
p31
I01
saF6.103515625e-05
aF1.2894549369812012
aF0.00011920928955078125
aS'12:00:11  06-07-16'
p32
a.