(lp0
(lp1
cnumpy.core.multiarray
scalar
p2
(cnumpy
dtype
p3
(S'f8'
p4
I0
I1
tp5
Rp6
(I3
S'<'
p7
NNNI-1
I-1
I0
tp8
bS'<\x9fX\x04-\xfb\xd1\xbf'
p9
tp10
Rp11
ag2
(g6
S'V\xecrP?\xf6\xee?'
p12
tp13
Rp14
ag2
(g6
S'\x066\xd1~aV\xee\xbf'
p15
tp16
Rp17
aa(dp18
S's'
p19
F1e-09
sS'd'
p20
(lp21
Fnan
asa(dp22
g20
I3
sS'n'
p23
I5
sa(dp24
ag2
(g6
S'@\x04=\xf9\xa0\x9d&@'
p25
tp26
Rp27
aF1.0
a(dp28
a(lp29
Fnan
aFnan
aFnan
aa(dp30
S'didnotrun'
p31
I01
saF4.601478576660156e-05
aF1.220093011856079
aF0.00015020370483398438
aS'12:00:21  06-07-16'
p32
a.