(lp0
(lp1
cnumpy.core.multiarray
scalar
p2
(cnumpy
dtype
p3
(S'f8'
p4
I0
I1
tp5
Rp6
(I3
S'<'
p7
NNNI-1
I-1
I0
tp8
bS'\x14\x88\xfa\xceU\xbd\xdd\xbf'
p9
tp10
Rp11
ag2
(g6
S' \x087|\xc6\xc5\xee?'
p12
tp13
Rp14
ag2
(g6
S'\xc0\x86\xbe\xec\xab*\x98?'
p15
tp16
Rp17
aa(dp18
S's'
p19
F1e-09
sS'd'
p20
(lp21
Fnan
asa(dp22
g20
I3
sS'n'
p23
I8
sa(dp24
ag2
(g6
S'\xf3`\x06\x8d\xe9I&@'
p25
tp26
Rp27
aF1.0
a(dp28
a(lp29
Fnan
aFnan
aFnan
aa(dp30
S'didnotrun'
p31
I01
saF6.699562072753906e-05
aF1.4113969802856445
aF0.00015020370483398438
aS'12:00:30  06-07-16'
p32
a.