(lp0
(lp1
cnumpy.core.multiarray
scalar
p2
(cnumpy
dtype
p3
(S'f8'
p4
I0
I1
tp5
Rp6
(I3
S'<'
p7
NNNI-1
I-1
I0
tp8
bS'|\xa4\x0f:\xab;\xe1?'
p9
tp10
Rp11
ag2
(g6
S'\x00( \xa6IrQ\xbf'
p12
tp13
Rp14
ag2
(g6
S'\\\x00\xa4\xdfN\xb0\xdf\xbf'
p15
tp16
Rp17
aa(dp18
S's'
p19
F1e-09
sS'd'
p20
(lp21
Fnan
asa(dp22
g20
I3
sS'n'
p23
I10
sa(dp24
ag2
(g6
S'\x1d/^\xaeg\n\x01@'
p25
tp26
Rp27
aF1.0
a(dp28
a(lp29
Fnan
aFnan
aFnan
aa(dp30
S'didnotrun'
p31
I01
saF5.91278076171875e-05
aF1.2726178169250488
aF0.0001621246337890625
aS'12:00:35  06-07-16'
p32
a.