(lp0
(lp1
cnumpy.core.multiarray
scalar
p2
(cnumpy
dtype
p3
(S'f8'
p4
I0
I1
tp5
Rp6
(I3
S'<'
p7
NNNI-1
I-1
I0
tp8
bS'\xe07c\xe1\xf3\xcc\xaa?'
p9
tp10
Rp11
ag2
(g6
S'\x10\x8b\x1fhx7\xde?'
p12
tp13
Rp14
ag2
(g6
S'\xa0\xe2/\xf6\xa9*\xcb?'
p15
tp16
Rp17
aa(dp18
S's'
p19
F1e-09
sS'd'
p20
(lp21
Fnan
asa(dp22
g20
I3
sS'n'
p23
I7
sa(dp24
ag2
(g6
S'\x9a\xba*Yu\xe72@'
p25
tp26
Rp27
aF1.0
a(dp28
a(lp29
Fnan
aFnan
aFnan
aa(dp30
S'didnotrun'
p31
I01
saF6.508827209472656e-05
aF1.4031059741973877
aF0.0001399517059326172
aS'12:00:27  06-07-16'
p32
a.