(lp0
(lp1
cnumpy.core.multiarray
scalar
p2
(cnumpy
dtype
p3
(S'f8'
p4
I0
I1
tp5
Rp6
(I3
S'<'
p7
NNNI-1
I-1
I0
tp8
bS'\xd83>\xf0\x89\x0c\xea\xbf'
p9
tp10
Rp11
ag2
(g6
S'\x80x\xeb\x97Er\xd7\xbf'
p12
tp13
Rp14
ag2
(g6
S'p\x89G\xc0\xd6~\xee?'
p15
tp16
Rp17
aa(dp18
S's'
p19
F1e-09
sS'd'
p20
(lp21
Fnan
asa(dp22
g20
I3
sS'n'
p23
I9
sa(dp24
ag2
(g6
S'\xfc\xbc\x07\x15\xe2\xa9E@'
p25
tp26
Rp27
aF1.0
a(dp28
a(lp29
Fnan
aFnan
aFnan
aa(dp30
S'didnotrun'
p31
I01
saF7.390975952148438e-05
aF1.4950969219207764
aF0.0001621246337890625
aS'12:00:33  06-07-16'
p32
a.