(lp0
(lp1
cnumpy.core.multiarray
scalar
p2
(cnumpy
dtype
p3
(S'f8'
p4
I0
I1
tp5
Rp6
(I3
S'<'
p7
NNNI-1
I-1
I0
tp8
bS'\x0crZL\xe30\xe8?'
p9
tp10
Rp11
ag2
(g6
S'\xc2\xf3\xf0\xb8\xfdv\xec?'
p12
tp13
Rp14
ag2
(g6
S'p\xa9\x88\xaa\xcc\xe5\xed\xbf'
p15
tp16
Rp17
aa(dp18
S's'
p19
F1e-09
sS'd'
p20
(lp21
Fnan
asa(dp22
g20
I3
sS'n'
p23
I2
sa(dp24
ag2
(g6
S'c"Prw\xf83@'
p25
tp26
Rp27
aF1.0
a(dp28
a(lp29
Fnan
aFnan
aFnan
aa(dp30
S'didnotrun'
p31
I01
saF6.4849853515625e-05
aF1.2578470706939697
aF0.00012803077697753906
aS'12:00:13  06-07-16'
p32
a.