(lp0
(lp1
cnumpy.core.multiarray
scalar
p2
(cnumpy
dtype
p3
(S'f8'
p4
I0
I1
tp5
Rp6
(I3
S'<'
p7
NNNI-1
I-1
I0
tp8
bS'p\x08\xda\xd3\x17\x18\xd6\xbf'
p9
tp10
Rp11
ag2
(g6
S'\xf0\xff\x05UP[\xe5\xbf'
p12
tp13
Rp14
ag2
(g6
S'\xe89)\xf9\x1fk\xdf\xbf'
p15
tp16
Rp17
aa(dp18
S's'
p19
F1e-09
sS'd'
p20
(lp21
Fnan
asa(dp22
g20
I3
sS'n'
p23
I6
sa(dp24
ag2
(g6
S'\x95\x1e_R\x84\x8c)@'
p25
tp26
Rp27
aF1.0
a(dp28
a(lp29
Fnan
aFnan
aFnan
aa(dp30
S'didnotrun'
p31
I01
saF5.698204040527344e-05
aF1.4621460437774658
aF0.00015091896057128906
aS'12:00:24  06-07-16'
p32
a.