(lp0
(lp1
cnumpy.core.multiarray
scalar
p2
(cnumpy
dtype
p3
(S'f8'
p4
I0
I1
tp5
Rp6
(I3
S'<'
p7
NNNI-1
I-1
I0
tp8
bS'\x98\xd7C\x06)\xc1\xe2?'
p9
tp10
Rp11
ag2
(g6
S'\x8c\xa8\xea?\xd3\xca\xdf?'
p12
tp13
Rp14
ag2
(g6
S'\x04\x9a\xd7\x9c\x1dV\xe5\xbf'
p15
tp16
Rp17
aa(dp18
S's'
p19
F1e-09
sS'd'
p20
(lp21
Fnan
asa(dp22
g20
I3
sS'n'
p23
I3
sa(dp24
ag2
(g6
S'\xff~O\x05\x99\xe3\x03@'
p25
tp26
Rp27
aF1.0
a(dp28
a(lp29
Fnan
aFnan
aFnan
aa(dp30
S'didnotrun'
p31
I01
saF6.008148193359375e-05
aF1.253875970840454
aF0.00012803077697753906
aS'12:00:16  06-07-16'
p32
a.