(lp0
(lp1
cnumpy.core.multiarray
scalar
p2
(cnumpy
dtype
p3
(S'f8'
p4
I0
I1
tp5
Rp6
(I3
S'<'
p7
NNNI-1
I-1
I0
tp8
bS'\x88\x1b\x83\xab\x02{\xc1?'
p9
tp10
Rp11
ag2
(g6
S',\xbeMlRF\xe9?'
p12
tp13
Rp14
ag2
(g6
S'\x98\x8d\xfb\xe6\x93\xd4\xca?'
p15
tp16
Rp17
aa(dp18
S's'
p19
F1e-09
sS'd'
p20
(lp21
Fnan
asa(dp22
g20
I3
sS'n'
p23
I4
sa(dp24
ag2
(g6
S'\x0e\xe4=+\x05\x13*@'
p25
tp26
Rp27
aF1.0
a(dp28
a(lp29
Fnan
aFnan
aFnan
aa(dp30
S'didnotrun'
p31
I01
saF5.698204040527344e-05
aF0.8148179054260254
aF0.0001010894775390625
aS'12:00:18  06-07-16'
p32
a.