(lp0
(lp1
cnumpy.core.multiarray
scalar
p2
(cnumpy
dtype
p3
(S'f8'
p4
I0
I1
tp5
Rp6
(I3
S'<'
p7
NNNI-1
I-1
I0
tp8
bS'4$]\xf8\xc7\xf8\xef?'
p9
tp10
Rp11
ag2
(g6
S'\xaa\x87\xcd\xa7\xb9\xe4\xe6?'
p12
tp13
Rp14
aa(dp15
S's'
p16
F1e-09
sS'd'
p17
(lp18
Fnan
asa(dp19
g17
I2
sS'n'
p20
I1
sa(dp21
ag2
(g6
S'\xdb*\xc0dZ\xdcF@'
p22
tp23
Rp24
aF1.0
a(dp25
a(lp26
Fnan
aFnan
aa(dp27
S'didnotrun'
p28
I01
saF7.200241088867188e-05
aF0.00011706352233886719
aF4.100799560546875e-05
aS'14:30:23  28-06-16'
p29
a.