(lp0
(lp1
cnumpy.core.multiarray
scalar
p2
(cnumpy
dtype
p3
(S'f8'
p4
I0
I1
tp5
Rp6
(I3
S'<'
p7
NNNI-1
I-1
I0
tp8
bS'\x08N\x9bM\x02u\xcb\xbf'
p9
tp10
Rp11
ag2
(g6
S'6Lj\xe4\xdc+\xed\xbf'
p12
tp13
Rp14
aa(dp15
S's'
p16
F1e-09
sS'd'
p17
(lp18
Fnan
asa(dp19
g17
I2
sS'n'
p20
I3
sa(dp21
ag2
(g6
S'\xdf\xb5\xbf\xcd<\x1a\n@'
p22
tp23
Rp24
aF1.0
a(dp25
a(lp26
Fnan
aFnan
aa(dp27
S'didnotrun'
p28
I01
saF4.100799560546875e-05
aF6.198883056640625e-05
aF3.1948089599609375e-05
aS'14:30:23  28-06-16'
p29
a.