(lp0
(lp1
cnumpy.core.multiarray
scalar
p2
(cnumpy
dtype
p3
(S'f8'
p4
I0
I1
tp5
Rp6
(I3
S'<'
p7
NNNI-1
I-1
I0
tp8
bS'829\xd5&\x10\xe3?'
p9
tp10
Rp11
ag2
(g6
S'\x98\xe8\x9d\x12\x1b\x99\xcc?'
p12
tp13
Rp14
aa(dp15
S's'
p16
F1e-09
sS'd'
p17
(lp18
Fnan
asa(dp19
g17
I2
sS'n'
p20
I2
sa(dp21
ag2
(g6
S'm\xd3\x9b\xb7N\x12\x18@'
p22
tp23
Rp24
aF1.0
a(dp25
a(lp26
Fnan
aFnan
aa(dp27
S'didnotrun'
p28
I01
saF4.38690185546875e-05
aF7.295608520507812e-05
aF3.504753112792969e-05
aS'14:30:23  28-06-16'
p29
a.