(lp0
(lp1
cnumpy.core.multiarray
scalar
p2
(cnumpy
dtype
p3
(S'f8'
p4
I0
I1
tp5
Rp6
(I3
S'<'
p7
NNNI-1
I-1
I0
tp8
bS't\xc3 <a\xe7\xde?'
p9
tp10
Rp11
ag2
(g6
S' 5\x05*\xdbs\xe3?'
p12
tp13
Rp14
aa(dp15
S's'
p16
F1e-09
sS'd'
p17
(lp18
Fnan
asa(dp19
g17
I2
sS'n'
p20
I5
sa(dp21
ag2
(g6
S'\x9d)\x12\xa7`\xf7\xe8?'
p22
tp23
Rp24
aF1.0
a(dp25
a(lp26
Fnan
aFnan
aa(dp27
S'didnotrun'
p28
I01
saF4.00543212890625e-05
aF6.198883056640625e-05
aF3.2901763916015625e-05
aS'14:30:23  28-06-16'
p29
a.