(lp0
(lp1
cnumpy.core.multiarray
scalar
p2
(cnumpy
dtype
p3
(S'f8'
p4
I0
I1
tp5
Rp6
(I3
S'<'
p7
NNNI-1
I-1
I0
tp8
bS'\xa0\x8f%\x1e\x13\xa5\xb8?'
p9
tp10
Rp11
ag2
(g6
S'Z\x01QA\x16=\xe8\xbf'
p12
tp13
Rp14
aa(dp15
S's'
p16
F1e-09
sS'd'
p17
(lp18
Fnan
asa(dp19
g17
I2
sS'n'
p20
I6
sa(dp21
ag2
(g6
S'+\x9e\xe2c\x01\xd9\xf9?'
p22
tp23
Rp24
aF1.0
a(dp25
a(lp26
Fnan
aFnan
aa(dp27
S'didnotrun'
p28
I01
saF3.981590270996094e-05
aF6.318092346191406e-05
aF3.0994415283203125e-05
aS'14:30:23  28-06-16'
p29
a.