(lp0
(lp1
cnumpy.core.multiarray
scalar
p2
(cnumpy
dtype
p3
(S'f8'
p4
I0
I1
tp5
Rp6
(I3
S'<'
p7
NNNI-1
I-1
I0
tp8
bS'\x1f\xe8\xe3\xcf0\xfd\xff\xbf'
p9
tp10
Rp11
ag2
(g6
S'\n\xf8KE\x10\xff\xff\xbf'
p12
tp13
Rp14
ag2
(g6
S'h\x0e/\n\x1bk\xe7?'
p15
tp16
Rp17
aa(dp18
S's'
p19
F1e-09
sS'd'
p20
(lp21
Fnan
asa(dp22
g20
I3
sS'n'
p23
I11
sa(dp24
S'logEImin'
p25
F-2.6411908372186472
sS'DIRECTmessage'
p26
S'Number of function evaluations done is larger then maxf'
p27
sS'MAPHYP'
p28
cnumpy.core.multiarray
_reconstruct
p29
(cnumpy
ndarray
p30
(I0
tp31
S'b'
p32
tp33
Rp34
(I1
(I4
tp35
g6
I00
S'\x8cdn^\xcc\xcaD@D\x0b\x16\x83\xf6|O@\xf1\xb7\x08n\xb4\x02\xfd?\x00\x00\x00\x00\x00\x00\xf0?'
p36
tp37
bsag2
(g6
S'\xc4G\xf2j\x07\xe0\xfc?'
p38
tp39
Rp40
aF1.0
a(dp41
a(lp42
Fnan
aFnan
aFnan
aa(dp43
S'didnotrun'
p44
I01
saF0.3334510326385498
aF0.12408304214477539
aF8.487701416015625e-05
aS'16:29:21  04-07-16'
p45
a.