(lp0
(lp1
cnumpy.core.multiarray
scalar
p2
(cnumpy
dtype
p3
(S'f8'
p4
I0
I1
tp5
Rp6
(I3
S'<'
p7
NNNI-1
I-1
I0
tp8
bS'\x00\x00\xbf\xe0\x80yF?'
p9
tp10
Rp11
ag2
(g6
S'\x80\xfd?\x98\x82\xcd\xed\xbf'
p12
tp13
Rp14
ag2
(g6
S'0Y\xd2Qo\xfb\xc4?'
p15
tp16
Rp17
aa(dp18
S's'
p19
F1e-09
sS'd'
p20
(lp21
Fnan
asa(dp22
g20
I3
sS'n'
p23
I54
sa(dp24
S'logEImin'
p25
F-0.4314018128161523
sS'DIRECTmessage'
p26
S'Number of function evaluations done is larger then maxf'
p27
sS'MAPHYP'
p28
cnumpy.core.multiarray
_reconstruct
p29
(cnumpy
ndarray
p30
(I0
tp31
S'b'
p32
tp33
Rp34
(I1
(I4
tp35
g6
I00
S"\x98V;'p\xf1C@\x120\r\x99:\x9e\xf0?\xa9\xedR\x82\x16\xb0\x15@\x00\x00\x00\x00\x00\x00\xf0?"
p36
tp37
bsag2
(g6
S'g\xa1\x9b\xde\xc7\x86\xfc?'
p38
tp39
Rp40
aF1.0
a(dp41
a(lp42
Fnan
aFnan
aFnan
aa(dp43
S'didnotrun'
p44
I01
saF1.4262878894805908
aF0.1206810474395752
aF8.702278137207031e-05
aS'16:30:17  04-07-16'
p45
a.