(lp0
(lp1
cnumpy.core.multiarray
scalar
p2
(cnumpy
dtype
p3
(S'f8'
p4
I0
I1
tp5
Rp6
(I3
S'<'
p7
NNNI-1
I-1
I0
tp8
bS'@[!\xa2sP\xf3\xbf'
p9
tp10
Rp11
ag2
(g6
S'L\xd0\x02\x1f\xf7\xff\xff\xbf'
p12
tp13
Rp14
ag2
(g6
S'\x88\x80\x81ip_\xd2?'
p15
tp16
Rp17
aa(dp18
S's'
p19
F1e-09
sS'd'
p20
(lp21
Fnan
asa(dp22
g20
I3
sS'n'
p23
I79
sa(dp24
S'logEImin'
p25
F0.6695654458132425
sS'DIRECTmessage'
p26
S'Number of function evaluations done is larger then maxf'
p27
sS'MAPHYP'
p28
cnumpy.core.multiarray
_reconstruct
p29
(cnumpy
ndarray
p30
(I0
tp31
S'b'
p32
tp33
Rp34
(I1
(I4
tp35
g6
I00
S'\xfc\xce\xd6vI\xaaA@:q\rzYS\xf1?~\x078\x81C\n\x15@\x00\x00\x00\x00\x00\x00\xf0?'
p36
tp37
bsag2
(g6
S'k\xbe\xaf\x14l\xa6\x00@'
p38
tp39
Rp40
aF1.0
a(dp41
a(lp42
Fnan
aFnan
aFnan
aa(dp43
S'didnotrun'
p44
I01
saF2.489163875579834
aF0.12630605697631836
aF8.702278137207031e-05
aS'16:31:24  04-07-16'
p45
a.