(lp0
(lp1
cnumpy.core.multiarray
scalar
p2
(cnumpy
dtype
p3
(S'f8'
p4
I0
I1
tp5
Rp6
(I3
S'<'
p7
NNNI-1
I-1
I0
tp8
bS'\xc0\xbf\x0e\xc6\xac4\xda?'
p9
tp10
Rp11
ag2
(g6
S'\x047\xbe\xd5Z\xe8\xf5\xbf'
p12
tp13
Rp14
ag2
(g6
S'\xa8\x898\xf7@\x1f\xf7\xbf'
p15
tp16
Rp17
aa(dp18
S's'
p19
F1e-09
sS'd'
p20
(lp21
Fnan
asa(dp22
g20
I3
sS'n'
p23
I88
sa(dp24
S'logEImin'
p25
F0.8805158984386627
sS'DIRECTmessage'
p26
S'Number of function evaluations done is larger then maxf'
p27
sS'MAPHYP'
p28
cnumpy.core.multiarray
_reconstruct
p29
(cnumpy
ndarray
p30
(I0
tp31
S'b'
p32
tp33
Rp34
(I1
(I4
tp35
g6
I00
S"\x98V;'p\xf1C@\x14\x98F\xeaw\x02\xf4?|\x9f\xd6Q\xc9\xdb\x18@\x00\x00\x00\x00\x00\x00\xf0?"
p36
tp37
bsag2
(g6
S"'\xd9tPve\xfb?"
p38
tp39
Rp40
aF1.0
a(dp41
a(lp42
g2
(g6
S'\xf8\x12\xdaKh/\xe1?'
p43
tp44
Rp45
ag2
(g6
S'\x15d\x1b\x02\x8a\xcf\xf1\xbf'
p46
tp47
Rp48
ag2
(g6
S'@\xf19S\xcb\x85\xf3\xbf'
p49
tp50
Rp51
aa(dp52
S'ymin'
p53
F1.4251828674150602
sg28
g29
(g30
(I0
tp54
g32
tp55
Rp56
(I1
(I4
tp57
g6
I00
S'2I\xe3e\xd3\x04D@0\xb8D\xb7\xeb\x15\xf4?\x8f\x894\xd2\x00=\x19@\x00\x00\x00\x00\x00\x00\xf0?'
p58
tp59
bsaF2.760641098022461
aF0.12286210060119629
aF2.4533629417419434
aS'16:31:59  04-07-16'
p60
a.