(lp0
(lp1
cnumpy.core.multiarray
scalar
p2
(cnumpy
dtype
p3
(S'f8'
p4
I0
I1
tp5
Rp6
(I3
S'<'
p7
NNNI-1
I-1
I0
tp8
bS'<\xd0\xc7\x9fa\xfa\xef?'
p9
tp10
Rp11
ag2
(g6
S'W\xdf$\xef\xaf\x83\xf9\xbf'
p12
tp13
Rp14
ag2
(g6
S'\x00\r\xd3\x7f\xb4.\xd3?'
p15
tp16
Rp17
aa(dp18
S's'
p19
F1e-09
sS'd'
p20
(lp21
Fnan
asa(dp22
g20
I3
sS'n'
p23
I13
sa(dp24
S'logEImin'
p25
F-2.1906542921988033
sS'DIRECTmessage'
p26
S'Number of function evaluations done is larger then maxf'
p27
sS'MAPHYP'
p28
cnumpy.core.multiarray
_reconstruct
p29
(cnumpy
ndarray
p30
(I0
tp31
S'b'
p32
tp33
Rp34
(I1
(I4
tp35
g6
I00
S'<\r\x1b\x95\xcd\x90H@D\x0b\x16\x83\xf6|O@H\xe0i\xb31\xa7\xff?\x00\x00\x00\x00\x00\x00\xf0?'
p36
tp37
bsag2
(g6
S'\xe2_\xf8U\x1eFK@'
p38
tp39
Rp40
aF1.0
a(dp41
a(lp42
Fnan
aFnan
aFnan
aa(dp43
S'didnotrun'
p44
I01
saF0.3805868625640869
aF0.12383008003234863
aF8.702278137207031e-05
aS'16:29:22  04-07-16'
p45
a.