(lp0
(lp1
cnumpy.core.multiarray
scalar
p2
(cnumpy
dtype
p3
(S'f8'
p4
I0
I1
tp5
Rp6
(I3
S'<'
p7
NNNI-1
I-1
I0
tp8
bS'\x18nY\x8c\x13+\xd0?'
p9
tp10
Rp11
ag2
(g6
S'(\xa7\xc4P\xaa\x13\xf0\xbf'
p12
tp13
Rp14
ag2
(g6
S'\xb4\xba\xef\x00\xe8\x06\xef\xbf'
p15
tp16
Rp17
aa(dp18
S's'
p19
F1e-09
sS'd'
p20
(lp21
Fnan
asa(dp22
g20
I3
sS'n'
p23
I53
sa(dp24
S'logEImin'
p25
F-0.6883634011210521
sS'DIRECTmessage'
p26
S'Number of function evaluations done is larger then maxf'
p27
sS'MAPHYP'
p28
cnumpy.core.multiarray
_reconstruct
p29
(cnumpy
ndarray
p30
(I0
tp31
S'b'
p32
tp33
Rp34
(I1
(I4
tp35
g6
I00
S'q\x8b\xfe_\x9f\x12A@W\xe2\x0b4\x83\x8f\xec?.J7\x13\x03\xab\x0f@\x00\x00\x00\x00\x00\x00\xf0?'
p36
tp37
bsag2
(g6
S'c\xdd\xa77\xb9M\x00@'
p38
tp39
Rp40
aF1.0
a(dp41
a(lp42
Fnan
aFnan
aFnan
aa(dp43
S'didnotrun'
p44
I01
saF1.466742992401123
aF0.12219786643981934
aF8.797645568847656e-05
aS'16:30:15  04-07-16'
p45
a.