(lp0
(lp1
cnumpy.core.multiarray
scalar
p2
(cnumpy
dtype
p3
(S'f8'
p4
I0
I1
tp5
Rp6
(I3
S'<'
p7
NNNI-1
I-1
I0
tp8
bS'z\xdb\xa7\xf2\x95\xdd\xf9\xbf'
p9
tp10
Rp11
ag2
(g6
S'<\xd0\xc7\x9fa\xfa\xef?'
p12
tp13
Rp14
ag2
(g6
S'<\xd0\xc7\x9fa\xfa\xef?'
p15
tp16
Rp17
aa(dp18
S's'
p19
F1e-09
sS'd'
p20
(lp21
Fnan
asa(dp22
g20
I3
sS'n'
p23
I17
sa(dp24
S'logEImin'
p25
F-2.5121868524124835
sS'DIRECTmessage'
p26
S'Number of function evaluations done is larger then maxf'
p27
sS'MAPHYP'
p28
cnumpy.core.multiarray
_reconstruct
p29
(cnumpy
ndarray
p30
(I0
tp31
S'b'
p32
tp33
Rp34
(I1
(I4
tp35
g6
I00
S'\xd34o*\xf1\xd2>@L\x95\xe2\t\xb7\x98\xc4?D\x0b\x16\x83\xf6|O@\x00\x00\x00\x00\x00\x00\xf0?'
p36
tp37
bsag2
(g6
S' \xd3\x89\xdclVO@'
p38
tp39
Rp40
aF1.0
a(dp41
a(lp42
Fnan
aFnan
aFnan
aa(dp43
S'didnotrun'
p44
I01
saF0.5271499156951904
aF0.12410306930541992
aF8.606910705566406e-05
aS'16:29:25  04-07-16'
p45
a.