(lp0
(lp1
cnumpy.core.multiarray
scalar
p2
(cnumpy
dtype
p3
(S'f8'
p4
I0
I1
tp5
Rp6
(I3
S'<'
p7
NNNI-1
I-1
I0
tp8
bS'0\xe5+\xbbc\x84\xcf?'
p9
tp10
Rp11
ag2
(g6
S'\xe0L-\x17\xee\xea\xbb?'
p12
tp13
Rp14
ag2
(g6
S'\x03O\xb7\xe6\x87E\xf2\xbf'
p15
tp16
Rp17
aa(dp18
S's'
p19
F1e-09
sS'd'
p20
(lp21
Fnan
asa(dp22
g20
I3
sS'n'
p23
I50
sa(dp24
S'logEImin'
p25
F-0.7825719972704148
sS'DIRECTmessage'
p26
S'Number of function evaluations done is larger then maxf'
p27
sS'MAPHYP'
p28
cnumpy.core.multiarray
_reconstruct
p29
(cnumpy
ndarray
p30
(I0
tp31
S'b'
p32
tp33
Rp34
(I1
(I4
tp35
g6
I00
S"\x9c\xfbe\xff'wA@\x9b\x0f\x92\xe9\x1f\xe3\xec?.J7\x13\x03\xab\x0f@\x00\x00\x00\x00\x00\x00\xf0?"
p36
tp37
bsag2
(g6
S'_\xcds%C\xbb\x04@'
p38
tp39
Rp40
aF1.0
a(dp41
a(lp42
Fnan
aFnan
aFnan
aa(dp43
S'didnotrun'
p44
I01
saF1.438960075378418
aF0.12203598022460938
aF8.296966552734375e-05
aS'16:30:09  04-07-16'
p45
a.