(lp0
(lp1
cnumpy.core.multiarray
scalar
p2
(cnumpy
dtype
p3
(S'f8'
p4
I0
I1
tp5
Rp6
(I3
S'<'
p7
NNNI-1
I-1
I0
tp8
bS't\xc9\xfa\xa5\xcc\x1a\xee\xbf'
p9
tp10
Rp11
ag2
(g6
S'\xc0d\xa1W\xff\xff\xef?'
p12
tp13
Rp14
ag2
(g6
S'\xd6"\x80\xbdP\x84\xf1\xbf'
p15
tp16
Rp17
aa(dp18
S's'
p19
F1e-09
sS'd'
p20
(lp21
Fnan
asa(dp22
g20
I3
sS'n'
p23
I70
sa(dp24
S'logEImin'
p25
F-0.021816263866266856
sS'DIRECTmessage'
p26
S'Number of function evaluations done is larger then maxf'
p27
sS'MAPHYP'
p28
cnumpy.core.multiarray
_reconstruct
p29
(cnumpy
ndarray
p30
(I0
tp31
S'b'
p32
tp33
Rp34
(I1
(I4
tp35
g6
I00
S"\xb2\x1a'\xe44\xe1@@\xd6'\n\xad>;\xee?\xcf=\xaf\xdd\n\xa7\x13@\x00\x00\x00\x00\x00\x00\xf0?"
p36
tp37
bsag2
(g6
S'$\xafq\xfc\xbd\xa3%@'
p38
tp39
Rp40
aF1.0
a(dp41
a(lp42
Fnan
aFnan
aFnan
aa(dp43
S'didnotrun'
p44
I01
saF2.143275022506714
aF0.1235511302947998
aF8.988380432128906e-05
aS'16:30:57  04-07-16'
p45
a.