(lp0
(lp1
cnumpy.core.multiarray
scalar
p2
(cnumpy
dtype
p3
(S'f8'
p4
I0
I1
tp5
Rp6
(I3
S'<'
p7
NNNI-1
I-1
I0
tp8
bS'\x00\xf8\xb7u\xd7\xae\x8f?'
p9
tp10
Rp11
ag2
(g6
S'\xaeR\x19\x17\xb0\xff\xff\xbf'
p12
tp13
Rp14
ag2
(g6
S'\xf1\xbd|\xa3b \xfa\xbf'
p15
tp16
Rp17
aa(dp18
S's'
p19
F1e-09
sS'd'
p20
(lp21
Fnan
asa(dp22
g20
I3
sS'n'
p23
I30
sa(dp24
S'logEImin'
p25
F-1.0854215392329565
sS'DIRECTmessage'
p26
S'Number of function evaluations done is larger then maxf'
p27
sS'MAPHYP'
p28
cnumpy.core.multiarray
_reconstruct
p29
(cnumpy
ndarray
p30
(I0
tp31
S'b'
p32
tp33
Rp34
(I1
(I4
tp35
g6
I00
S'\xd34o*\xf1\xd2>@XKq\xc9`\xa3\xef?}]\xbf\xee\xc0\xa8\x08@\x00\x00\x00\x00\x00\x00\xf0?'
p36
tp37
bsag2
(g6
S'5\x98\x12\x02W\xca\t@'
p38
tp39
Rp40
aF1.0
a(dp41
a(lp42
Fnan
aFnan
aFnan
aa(dp43
S'didnotrun'
p44
I01
saF0.7981421947479248
aF0.12439489364624023
aF8.702278137207031e-05
aS'16:29:38  04-07-16'
p45
a.