(lp0
(lp1
cnumpy.core.multiarray
scalar
p2
(cnumpy
dtype
p3
(S'f8'
p4
I0
I1
tp5
Rp6
(I3
S'<'
p7
NNNI-1
I-1
I0
tp8
bS'\x1c\xeb\x81\tWt\xfd\xbf'
p9
tp10
Rp11
ag2
(g6
S'\xe4p\x08]\xe5\xff\xff\xbf'
p12
tp13
Rp14
ag2
(g6
S'\xc0@\xcf\x0b\xfc\x0f\xd1?'
p15
tp16
Rp17
aa(dp18
S's'
p19
F1e-09
sS'd'
p20
(lp21
Fnan
asa(dp22
g20
I3
sS'n'
p23
I73
sa(dp24
S'logEImin'
p25
F0.4265481750343461
sS'DIRECTmessage'
p26
S'Number of function evaluations done is larger then maxf'
p27
sS'MAPHYP'
p28
cnumpy.core.multiarray
_reconstruct
p29
(cnumpy
ndarray
p30
(I0
tp31
S'b'
p32
tp33
Rp34
(I1
(I4
tp35
g6
I00
S"\x9a\xdf&\x9e\x00\xdeA@\x18\xf0\xf5\xc9\x99\xbe\xf0?\xe73 d'\x91\x14@\x00\x00\x00\x00\x00\x00\xf0?"
p36
tp37
bsag2
(g6
S'!l\xa0\x8d&e\x01@'
p38
tp39
Rp40
aF1.0
a(dp41
a(lp42
Fnan
aFnan
aFnan
aa(dp43
S'didnotrun'
p44
I01
saF2.120579957962036
aF0.12232589721679688
aF8.797645568847656e-05
aS'16:31:06  04-07-16'
p45
a.