(lp0
(lp1
cnumpy.core.multiarray
scalar
p2
(cnumpy
dtype
p3
(S'f8'
p4
I0
I1
tp5
Rp6
(I3
S'<'
p7
NNNI-1
I-1
I0
tp8
bS'\xdc\x8a\xac\x14\xfa\xff\xef?'
p9
tp10
Rp11
ag2
(g6
S'nEV\n\xfd\xff\xff\xbf'
p12
tp13
Rp14
ag2
(g6
S'L\xd0\x02\x1f\xf7\xff\xff\xbf'
p15
tp16
Rp17
aa(dp18
S's'
p19
F1e-09
sS'd'
p20
(lp21
Fnan
asa(dp22
g20
I3
sS'n'
p23
I40
sa(dp24
S'logEImin'
p25
F-0.5348607417002434
sS'DIRECTmessage'
p26
S'Number of function evaluations done is larger then maxf'
p27
sS'MAPHYP'
p28
cnumpy.core.multiarray
_reconstruct
p29
(cnumpy
ndarray
p30
(I0
tp31
S'b'
p32
tp33
Rp34
(I1
(I4
tp35
g6
I00
S'Az\x0f~M\xca=@!\xfdX*2\x8c\xf4?8\xd2\x07\xb9\x0f\x90\x07@\x00\x00\x00\x00\x00\x00\xf0?'
p36
tp37
bsag2
(g6
S'\xf8\x1d\x9f\xc1+\x7fI@'
p38
tp39
Rp40
aF1.0
a(dp41
a(lp42
g2
(g6
S'p\x08(>gj\xd9?'
p43
tp44
Rp45
ag2
(g6
S'\\\xb8\xabo\x92\xf7\xff\xbf'
p46
tp47
Rp48
ag2
(g6
S'\xf0tk~X\xa4\xf4\xbf'
p49
tp50
Rp51
aa(dp52
S'ymin'
p53
F-0.6986497797148559
sg28
g29
(g30
(I0
tp54
g32
tp55
Rp56
(I1
(I4
tp57
g6
I00
S'\xb5\x82>0\x11!@@\xa7\xe8\x7f\xbd\xbc\xf9\xf2?\xb0I\x04*\xbe>\r@\x00\x00\x00\x00\x00\x00\xf0?'
p58
tp59
bsaF1.0793778896331787
aF0.1311631202697754
aF0.8161778450012207
aS'16:29:53  04-07-16'
p60
a.