(lp0
(lp1
cnumpy.core.multiarray
scalar
p2
(cnumpy
dtype
p3
(S'f8'
p4
I0
I1
tp5
Rp6
(I3
S'<'
p7
NNNI-1
I-1
I0
tp8
bS'\xf0\x05\x1c\\\xa1<\xc0\xbf'
p9
tp10
Rp11
ag2
(g6
S'\x80\xe7\x8b2\xefd\xed\xbf'
p12
tp13
Rp14
ag2
(g6
S'`\x86C\xac6S\xd3?'
p15
tp16
Rp17
aa(dp18
S's'
p19
F1e-09
sS'd'
p20
(lp21
Fnan
asa(dp22
g20
I3
sS'n'
p23
I8
sa(dp24
ag2
(g6
S'\x8f\x0c]\x1bp;\xfb?'
p25
tp26
Rp27
aF1.0
a(dp28
a(lp29
Fnan
aFnan
aFnan
aa(dp30
S'didnotrun'
p31
I01
saF4.696846008300781e-05
aF0.1231081485748291
aF8.392333984375e-05
aS'16:29:20  04-07-16'
p32
a.