(lp0
(lp1
cnumpy.core.multiarray
scalar
p2
(cnumpy
dtype
p3
(S'f8'
p4
I0
I1
tp5
Rp6
(I3
S'<'
p7
NNNI-1
I-1
I0
tp8
bS'\x98\x1f\x16)\x03O\xd7\xbf'
p9
tp10
Rp11
ag2
(g6
S'\xaeR\x19\x17\xb0\xff\xff\xbf'
p12
tp13
Rp14
ag2
(g6
S'\xaeR\x19\x17\xb0\xff\xff\xbf'
p15
tp16
Rp17
aa(dp18
S's'
p19
F1e-09
sS'd'
p20
(lp21
Fnan
asa(dp22
g20
I3
sS'n'
p23
I23
sa(dp24
S'logEImin'
p25
F-1.720787008132321
sS'DIRECTmessage'
p26
S'Number of function evaluations done is larger then maxf'
p27
sS'MAPHYP'
p28
cnumpy.core.multiarray
_reconstruct
p29
(cnumpy
ndarray
p30
(I0
tp31
S'b'
p32
tp33
Rp34
(I1
(I4
tp35
g6
I00
S'\x89\x02\x92\x86\x9aDA@\xc3\x1a\x93~7^\xf0?\xba\xb4\x84w\xc3\xc5\x06@\x00\x00\x00\x00\x00\x00\xf0?'
p36
tp37
bsag2
(g6
S'\x07cH\xb1v\x1d\x19@'
p38
tp39
Rp40
aF1.0
a(dp41
a(lp42
Fnan
aFnan
aFnan
aa(dp43
S'didnotrun'
p44
I01
saF0.5408821105957031
aF0.12841796875
aF8.606910705566406e-05
aS'16:29:30  04-07-16'
p45
a.