(lp0
(lp1
cnumpy.core.multiarray
scalar
p2
(cnumpy
dtype
p3
(S'f8'
p4
I0
I1
tp5
Rp6
(I3
S'<'
p7
NNNI-1
I-1
I0
tp8
bS'P6\xfa\xdeX\xa5\xdd?'
p9
tp10
Rp11
ag2
(g6
S'\xe4p\x08]\xe5\xff\xff\xbf'
p12
tp13
Rp14
ag2
(g6
S'Z\x98*\x07\x13\xe3\xf7\xbf'
p15
tp16
Rp17
aa(dp18
S's'
p19
F1e-09
sS'd'
p20
(lp21
Fnan
asa(dp22
g20
I3
sS'n'
p23
I35
sa(dp24
S'logEImin'
p25
F-0.8422031146211651
sS'DIRECTmessage'
p26
S'Number of function evaluations done is larger then maxf'
p27
sS'MAPHYP'
p28
cnumpy.core.multiarray
_reconstruct
p29
(cnumpy
ndarray
p30
(I0
tp31
S'b'
p32
tp33
Rp34
(I1
(I4
tp35
g6
I00
S'\xb4\r\xc5\xc2\x83!>@\xbdt\xb5\xe6\x82\x8c\xf2?8\xd2\x07\xb9\x0f\x90\x07@\x00\x00\x00\x00\x00\x00\xf0?'
p36
tp37
bsag2
(g6
S'\xfc\xef3\xce\xd9n\xfb?'
p38
tp39
Rp40
aF1.0
a(dp41
a(lp42
Fnan
aFnan
aFnan
aa(dp43
S'didnotrun'
p44
I01
saF1.09452486038208
aF0.13473105430603027
aF0.00011801719665527344
aS'16:29:45  04-07-16'
p45
a.