(lp0
(lp1
cnumpy.core.multiarray
scalar
p2
(cnumpy
dtype
p3
(S'f8'
p4
I0
I1
tp5
Rp6
(I3
S'<'
p7
NNNI-1
I-1
I0
tp8
bS'\x80DC\xc4\x1a\x12\xd0\xbf'
p9
tp10
Rp11
ag2
(g6
S'=I\xcb\xe6\xc50\xf6\xbf'
p12
tp13
Rp14
ag2
(g6
S'\x98\n\xf0\xf8\x94V\xd5?'
p15
tp16
Rp17
aa(dp18
S's'
p19
F1e-09
sS'd'
p20
(lp21
Fnan
asa(dp22
g20
I3
sS'n'
p23
I97
sa(dp24
S'logEImin'
p25
F1.1537706664879714
sS'DIRECTmessage'
p26
S'Number of function evaluations done is larger then maxf'
p27
sS'MAPHYP'
p28
cnumpy.core.multiarray
_reconstruct
p29
(cnumpy
ndarray
p30
(I0
tp31
S'b'
p32
tp33
Rp34
(I1
(I4
tp35
g6
I00
S'xMa:_\xefA@d8\xfb(\x8b\x9e\xf2?\xcdC*\xa8\x12|\x17@\x00\x00\x00\x00\x00\x00\xf0?'
p36
tp37
bsag2
(g6
S'\xa7\xa4%\x84W\xf3\xfa?'
p38
tp39
Rp40
aF1.0
a(dp41
a(lp42
Fnan
aFnan
aFnan
aa(dp43
S'didnotrun'
p44
I01
saF3.2573790550231934
aF0.12771081924438477
aF9.107589721679688e-05
aS'16:32:36  04-07-16'
p45
a.