(lp0
(lp1
cnumpy.core.multiarray
scalar
p2
(cnumpy
dtype
p3
(S'f8'
p4
I0
I1
tp5
Rp6
(I3
S'<'
p7
NNNI-1
I-1
I0
tp8
bS'\x88\xafu\x07\x18\xb0\xf5\xbf'
p9
tp10
Rp11
ag2
(g6
S'\x80:of\xdd\xd9\x94\xbf'
p12
tp13
Rp14
ag2
(g6
S'\x16}\x91P\x82\xfb\xe6\xbf'
p15
tp16
Rp17
aa(dp18
S's'
p19
F1e-09
sS'd'
p20
(lp21
Fnan
asa(dp22
g20
I3
sS'n'
p23
I9
sa(dp24
ag2
(g6
S'\xd5\x88W\xec\x17\xd7?@'
p25
tp26
Rp27
aF1.0
a(dp28
a(lp29
Fnan
aFnan
aFnan
aa(dp30
S'didnotrun'
p31
I01
saF4.100799560546875e-05
aF0.12209320068359375
aF8.797645568847656e-05
aS'16:29:20  04-07-16'
p32
a.