(lp0
(lp1
cnumpy.core.multiarray
scalar
p2
(cnumpy
dtype
p3
(S'f8'
p4
I0
I1
tp5
Rp6
(I3
S'<'
p7
NNNI-1
I-1
I0
tp8
bS'\xc8\xb3a8{j\xd7\xbf'
p9
tp10
Rp11
ag2
(g6
S'\xaeR\x19\x17\xb0\xff\xff\xbf'
p12
tp13
Rp14
ag2
(g6
S'\x10\xb1\x86\x04\x0cL\xe3\xbf'
p15
tp16
Rp17
aa(dp18
S's'
p19
F1e-09
sS'd'
p20
(lp21
Fnan
asa(dp22
g20
I3
sS'n'
p23
I99
sa(dp24
S'logEImin'
p25
F1.2364448095571152
sS'DIRECTmessage'
p26
S'Number of function evaluations done is larger then maxf'
p27
sS'MAPHYP'
p28
cnumpy.core.multiarray
_reconstruct
p29
(cnumpy
ndarray
p30
(I0
tp31
S'b'
p32
tp33
Rp34
(I1
(I4
tp35
g6
I00
S'\x9a\xdf&\x9e\x00\xdeA@d8\xfb(\x8b\x9e\xf2?^\x84\xd1\x1b\xd2\xa9\x17@\x00\x00\x00\x00\x00\x00\xf0?'
p36
tp37
bsag2
(g6
S'\x11\xfa/\x98\xa0\x10\x12@'
p38
tp39
Rp40
aF1.0
a(dp41
a(lp42
Fnan
aFnan
aFnan
aa(dp43
S'didnotrun'
p44
I01
saF3.43564510345459
aF0.12952899932861328
aF8.797645568847656e-05
aS'16:32:44  04-07-16'
p45
a.