(lp0
(lp1
cnumpy.core.multiarray
scalar
p2
(cnumpy
dtype
p3
(S'f8'
p4
I0
I1
tp5
Rp6
(I3
S'<'
p7
NNNI-1
I-1
I0
tp8
bS'\xa0lU\xc8\xe7\x81\xc4?'
p9
tp10
Rp11
ag2
(g6
S'\xc8\xe1\x10\xba\xca\xff\xef?'
p12
tp13
Rp14
ag2
(g6
S'\xb6\x01T7\xb6\x82\xea\xbf'
p15
tp16
Rp17
aa(dp18
S's'
p19
F1e-09
sS'd'
p20
(lp21
Fnan
asa(dp22
g20
I3
sS'n'
p23
I67
sa(dp24
S'logEImin'
p25
F0.1957095984496059
sS'DIRECTmessage'
p26
S'Number of function evaluations done is larger then maxf'
p27
sS'MAPHYP'
p28
cnumpy.core.multiarray
_reconstruct
p29
(cnumpy
ndarray
p30
(I0
tp31
S'b'
p32
tp33
Rp34
(I1
(I4
tp35
g6
I00
S"\x98V;'p\xf1C@\x84\x9b!}\x19u\xf1?\xc0\x8d\xe2\xc3v\x9c\x16@\x00\x00\x00\x00\x00\x00\xf0?"
p36
tp37
bsag2
(g6
S'\x86\xbay\x9a\x8a\n&@'
p38
tp39
Rp40
aF1.0
a(dp41
a(lp42
Fnan
aFnan
aFnan
aa(dp43
S'didnotrun'
p44
I01
saF1.984503984451294
aF0.1259171962738037
aF8.797645568847656e-05
aS'16:30:49  04-07-16'
p45
a.