(lp0
(lp1
cnumpy.core.multiarray
scalar
p2
(cnumpy
dtype
p3
(S'f8'
p4
I0
I1
tp5
Rp6
(I3
S'<'
p7
NNNI-1
I-1
I0
tp8
bS'\x14\xf0\x97\x8a \xfe\xef?'
p9
tp10
Rp11
ag2
(g6
S'\x14\xf0\x97\x8a \xfe\xef?'
p12
tp13
Rp14
ag2
(g6
S'\xaeR\x19\x17\xb0\xff\xff\xbf'
p15
tp16
Rp17
aa(dp18
S's'
p19
F1e-09
sS'd'
p20
(lp21
Fnan
asa(dp22
g20
I3
sS'n'
p23
I12
sa(dp24
S'logEImin'
p25
F-2.6035607088439545
sS'DIRECTmessage'
p26
S'Number of function evaluations done is larger then maxf'
p27
sS'MAPHYP'
p28
cnumpy.core.multiarray
_reconstruct
p29
(cnumpy
ndarray
p30
(I0
tp31
S'b'
p32
tp33
Rp34
(I1
(I4
tp35
g6
I00
S"\x98V;'p\xf1C@\x86m)]'\x87O@2\xa9g\x8b\x9e\xca\xfc?\x00\x00\x00\x00\x00\x00\xf0?"
p36
tp37
bsag2
(g6
S'(w\xea=\xadUO@'
p38
tp39
Rp40
aF1.0
a(dp41
a(lp42
g2
(g6
S'\xb8pW\xdf$\xef\xef?'
p43
tp44
Rp45
ag2
(g6
S'\x1a=\xa2\x82lC\xf8\xbf'
p46
tp47
Rp48
ag2
(g6
S'h\x1c\xc7q\x1c\xc7\xd1?'
p49
tp50
Rp51
aa(dp52
S'ymin'
p53
F-6.748873873043053
sg28
g29
(g30
(I0
tp54
g32
tp55
Rp56
(I1
(I4
tp57
g6
I00
S'<\r\x1b\x95\xcd\x90H@D\x0b\x16\x83\xf6|O@H\xe0i\xb31\xa7\xff?\x00\x00\x00\x00\x00\x00\xf0?'
p58
tp59
bsaF0.37096500396728516
aF0.12276816368103027
aF0.22700905799865723
aS'16:29:22  04-07-16'
p60
a.