(lp0
(lp1
cnumpy.core.multiarray
scalar
p2
(cnumpy
dtype
p3
(S'f8'
p4
I0
I1
tp5
Rp6
(I3
S'<'
p7
NNNI-1
I-1
I0
tp8
bS'B\x12\xac\x065\x11\xe7\xbf'
p9
tp10
Rp11
ag2
(g6
S'\n\xf8KE\x10\xff\xff\xbf'
p12
tp13
Rp14
ag2
(g6
S'\x14\xf0\x97\x8a \xfe\xef?'
p15
tp16
Rp17
aa(dp18
S's'
p19
F1e-09
sS'd'
p20
(lp21
Fnan
asa(dp22
g20
I3
sS'n'
p23
I14
sa(dp24
S'logEImin'
p25
F-2.4638636551023274
sS'DIRECTmessage'
p26
S'Number of function evaluations done is larger then maxf'
p27
sS'MAPHYP'
p28
cnumpy.core.multiarray
_reconstruct
p29
(cnumpy
ndarray
p30
(I0
tp31
S'b'
p32
tp33
Rp34
(I1
(I4
tp35
g6
I00
S'\xb5\x82>0\x11!@@\xdaW\x1b\x96\xbf\x93\xee?\xb8\xe2\xb3\xa5\xbf\x8e\x02@\x00\x00\x00\x00\x00\x00\xf0?'
p36
tp37
bsag2
(g6
S'<t2\x03)\xb1I@'
p38
tp39
Rp40
aF1.0
a(dp41
a(lp42
Fnan
aFnan
aFnan
aa(dp43
S'didnotrun'
p44
I01
saF0.37574005126953125
aF0.12246298789978027
aF8.511543273925781e-05
aS'16:29:23  04-07-16'
p45
a.