(lp0
(lp1
cnumpy.core.multiarray
scalar
p2
(cnumpy
dtype
p3
(S'f8'
p4
I0
I1
tp5
Rp6
(I3
S'<'
p7
NNNI-1
I-1
I0
tp8
bS'\xc0\xa9\xe5\xc2]}\xb3\xbf'
p9
tp10
Rp11
ag2
(g6
S'2d\xf8\xe2\xe7)\xf6\xbf'
p12
tp13
Rp14
ag2
(g6
S'\xf8\x00&\xf2\x82d\xd0?'
p15
tp16
Rp17
aa(dp18
S's'
p19
F1e-09
sS'd'
p20
(lp21
Fnan
asa(dp22
g20
I3
sS'n'
p23
I83
sa(dp24
S'logEImin'
p25
F0.5257610731512766
sS'DIRECTmessage'
p26
S'Number of function evaluations done is larger then maxf'
p27
sS'MAPHYP'
p28
cnumpy.core.multiarray
_reconstruct
p29
(cnumpy
ndarray
p30
(I0
tp31
S'b'
p32
tp33
Rp34
(I1
(I4
tp35
g6
I00
S'\xe0`\xea\xa1\xd8\xb2B@\x99\xeb\x93\xa4\xd2V\xf2?\xc8a\x11I\xe7\x92\x17@\x00\x00\x00\x00\x00\x00\xf0?'
p36
tp37
bsag2
(g6
S'\xc2\x14|\xeb\xc5<\xfb?'
p38
tp39
Rp40
aF1.0
a(dp41
a(lp42
Fnan
aFnan
aFnan
aa(dp43
S'didnotrun'
p44
I01
saF2.7057180404663086
aF0.12377309799194336
aF8.893013000488281e-05
aS'16:31:38  04-07-16'
p45
a.