(lp0
(lp1
cnumpy.core.multiarray
scalar
p2
(cnumpy
dtype
p3
(S'f8'
p4
I0
I1
tp5
Rp6
(I3
S'<'
p7
NNNI-1
I-1
I0
tp8
bS'\x84Z\xeaS(\xb6\xfe\xbf'
p9
tp10
Rp11
ag2
(g6
S'pr\xb6z>\xb3\xd3?'
p12
tp13
Rp14
ag2
(g6
S')\x19\xd9\xe8\x18\xac\xf4\xbf'
p15
tp16
Rp17
aa(dp18
S's'
p19
F1e-09
sS'd'
p20
(lp21
Fnan
asa(dp22
g20
I3
sS'n'
p23
I6
sa(dp24
ag2
(g6
S'\x08F\xdbhX\xd75@'
p25
tp26
Rp27
aF1.0
a(dp28
a(lp29
Fnan
aFnan
aFnan
aa(dp30
S'didnotrun'
p31
I01
saF4.601478576660156e-05
aF0.12608599662780762
aF9.393692016601562e-05
aS'16:29:19  04-07-16'
p32
a.