(lp0
(lp1
cnumpy.core.multiarray
scalar
p2
(cnumpy
dtype
p3
(S'f8'
p4
I0
I1
tp5
Rp6
(I3
S'<'
p7
NNNI-1
I-1
I0
tp8
bS'Z\xbc\x0e\x13L\x06\xf2\xbf'
p9
tp10
Rp11
ag2
(g6
S'P3\xfe\xe4_\x81\xdc?'
p12
tp13
Rp14
ag2
(g6
S'r\x01c\x93\xeb\x8b\xe0\xbf'
p15
tp16
Rp17
aa(dp18
S's'
p19
F1e-09
sS'd'
p20
(lp21
Fnan
asa(dp22
g20
I3
sS'n'
p23
I10
sa(dp24
ag2
(g6
S'\x01x\xa7\x0cN\x811@'
p25
tp26
Rp27
aF1.0
a(dp28
a(lp29
Fnan
aFnan
aFnan
aa(dp30
S'didnotrun'
p31
I01
saF4.100799560546875e-05
aF0.1275010108947754
aF8.606910705566406e-05
aS'16:29:20  04-07-16'
p32
a.