(lp0
(lp1
cnumpy.core.multiarray
scalar
p2
(cnumpy
dtype
p3
(S'f8'
p4
I0
I1
tp5
Rp6
(I3
S'<'
p7
NNNI-1
I-1
I0
tp8
bS'L\xd0\x02\x1f\xf7\xff\xff\xbf'
p9
tp10
Rp11
ag2
(g6
S'L\xd0\x02\x1f\xf7\xff\xff\xbf'
p12
tp13
Rp14
ag2
(g6
S'\xa8\xe1\x9a\xbb\x9f\xf4\xdf?'
p15
tp16
Rp17
aa(dp18
S's'
p19
F1e-09
sS'd'
p20
(lp21
Fnan
asa(dp22
g20
I3
sS'n'
p23
I38
sa(dp24
S'logEImin'
p25
F-0.692672009746184
sS'DIRECTmessage'
p26
S'Number of function evaluations done is larger then maxf'
p27
sS'MAPHYP'
p28
cnumpy.core.multiarray
_reconstruct
p29
(cnumpy
ndarray
p30
(I0
tp31
S'b'
p32
tp33
Rp34
(I1
(I4
tp35
g6
I00
S'\xb4\r\xc5\xc2\x83!>@\xba\x1cT\x13N\xa2\xf3?\xf6\n\x04\xcf\xcf\x1a\x08@\x00\x00\x00\x00\x00\x00\xf0?'
p36
tp37
bsag2
(g6
S'8\xc0\x1b\xb2\xf9\xbe\xfa?'
p38
tp39
Rp40
aF1.0
a(dp41
a(lp42
Fnan
aFnan
aFnan
aa(dp43
S'didnotrun'
p44
I01
saF0.9869439601898193
aF0.12317109107971191
aF9.703636169433594e-05
aS'16:29:49  04-07-16'
p45
a.