(lp0
(lp1
cnumpy.core.multiarray
scalar
p2
(cnumpy
dtype
p3
(S'f8'
p4
I0
I1
tp5
Rp6
(I3
S'<'
p7
NNNI-1
I-1
I0
tp8
bS'\xd8\x86\x0e\xa5\xe8\xa4\xd1?'
p9
tp10
Rp11
ag2
(g6
S'\xc8\xab\xc8\xac\xe1=\xdc?'
p12
tp13
Rp14
ag2
(g6
S'\xb0h\xc2L\xf0\xe9\xcf\xbf'
p15
tp16
Rp17
aa(dp18
S's'
p19
F1e-09
sS'd'
p20
(lp21
Fnan
asa(dp22
g20
I3
sS'n'
p23
I7
sa(dp24
ag2
(g6
S'u\xee\xed\xd4\xc4\x16-@'
p25
tp26
Rp27
aF1.0
a(dp28
a(lp29
Fnan
aFnan
aFnan
aa(dp30
S'didnotrun'
p31
I01
saF4.792213439941406e-05
aF0.12171101570129395
aF8.988380432128906e-05
aS'16:29:19  04-07-16'
p32
a.