(lp0
(lp1
cnumpy.core.multiarray
scalar
p2
(cnumpy
dtype
p3
(S'f8'
p4
I0
I1
tp5
Rp6
(I3
S'<'
p7
NNNI-1
I-1
I0
tp8
bS'a\xb2\xd0\xab\xff\xff\xff\xbf'
p9
tp10
Rp11
ag2
(g6
S'\xc0d\xa1W\xff\xff\xef?'
p12
tp13
Rp14
ag2
(g6
S'\x0e\x14Nz\x96\xd1\xec\xbf'
p15
tp16
Rp17
aa(dp18
S's'
p19
F1e-09
sS'd'
p20
(lp21
Fnan
asa(dp22
g20
I3
sS'n'
p23
I63
sa(dp24
S'logEImin'
p25
F-0.05092418818726022
sS'DIRECTmessage'
p26
S'Number of function evaluations done is larger then maxf'
p27
sS'MAPHYP'
p28
cnumpy.core.multiarray
_reconstruct
p29
(cnumpy
ndarray
p30
(I0
tp31
S'b'
p32
tp33
Rp34
(I1
(I4
tp35
g6
I00
S'I\x9d\xce.\xb5zD@\xc4\x94\xf1\xf2\xa4\xb0\xf2?\xf4\xce\x08\xdb]E\x16@\x00\x00\x00\x00\x00\x00\xf0?'
p36
tp37
bsag2
(g6
S"5'\xd1\xcc\x99\xd0%@"
p38
tp39
Rp40
aF1.0
a(dp41
a(lp42
Fnan
aFnan
aFnan
aa(dp43
S'didnotrun'
p44
I01
saF2.35294508934021
aF0.1228799819946289
aF8.797645568847656e-05
aS'16:30:38  04-07-16'
p45
a.