(lp0
(lp1
cnumpy.core.multiarray
scalar
p2
(cnumpy
dtype
p3
(S'f8'
p4
I0
I1
tp5
Rp6
(I3
S'<'
p7
NNNI-1
I-1
I0
tp8
bS'\x84\xd6\xc5\xf4\xba\x12\xed\xbf'
p9
tp10
Rp11
ag2
(g6
S'nEV\n\xfd\xff\xff\xbf'
p12
tp13
Rp14
ag2
(g6
S'`O\x90\x04\xde\xa0\xb1?'
p15
tp16
Rp17
aa(dp18
S's'
p19
F1e-09
sS'd'
p20
(lp21
Fnan
asa(dp22
g20
I3
sS'n'
p23
I71
sa(dp24
S'logEImin'
p25
F0.10330205613519729
sS'DIRECTmessage'
p26
S'Number of function evaluations done is larger then maxf'
p27
sS'MAPHYP'
p28
cnumpy.core.multiarray
_reconstruct
p29
(cnumpy
ndarray
p30
(I0
tp31
S'b'
p32
tp33
Rp34
(I1
(I4
tp35
g6
I00
S'q\x8b\xfe_\x9f\x12A@\xceqt\xa9\xcdG\xef?\xeda\xf2\xd6(n\x13@\x00\x00\x00\x00\x00\x00\xf0?'
p36
tp37
bsag2
(g6
S'\x00\x95=\xdd\xf4B\x06@'
p38
tp39
Rp40
aF1.0
a(dp41
a(lp42
Fnan
aFnan
aFnan
aa(dp43
S'didnotrun'
p44
I01
saF2.1590700149536133
aF0.12676405906677246
aF8.296966552734375e-05
aS'16:31:00  04-07-16'
p45
a.