(lp0
(lp1
cnumpy.core.multiarray
scalar
p2
(cnumpy
dtype
p3
(S'f8'
p4
I0
I1
tp5
Rp6
(I3
S'<'
p7
NNNI-1
I-1
I0
tp8
bS'\xc0\x9aB5\xcb\xa8\xca?'
p9
tp10
Rp11
ag2
(g6
S'\xe4p\x08]\xe5\xff\xff\xbf'
p12
tp13
Rp14
ag2
(g6
S'\xc8\xe1\x10\xba\xca\xff\xef?'
p15
tp16
Rp17
aa(dp18
S's'
p19
F1e-09
sS'd'
p20
(lp21
Fnan
asa(dp22
g20
I3
sS'n'
p23
I48
sa(dp24
S'logEImin'
p25
F-1.2628948071688153
sS'DIRECTmessage'
p26
S'Number of function evaluations done is larger then maxf'
p27
sS'MAPHYP'
p28
cnumpy.core.multiarray
_reconstruct
p29
(cnumpy
ndarray
p30
(I0
tp31
S'b'
p32
tp33
Rp34
(I1
(I4
tp35
g6
I00
S"\xe9\xe1eU4w<@_c\xef*\x04'\xe4?\xc7]\x04\xad\xb7\xcd\n@\x00\x00\x00\x00\x00\x00\xf0?"
p36
tp37
bsag2
(g6
S'm\x94\x9d\xc9\x1d\xfcJ@'
p38
tp39
Rp40
aF1.0
a(dp41
a(lp42
g2
(g6
S'\x00H\x8f\xa8 \xdb`\xbf'
p43
tp44
Rp45
ag2
(g6
S'\\\xb8\xabo\x92\xf7\xff\xbf'
p46
tp47
Rp48
ag2
(g6
S'\x80\xa7[\xf3\xc3"\xe5\xbf'
p49
tp50
Rp51
aa(dp52
S'ymin'
p53
F-0.022961445464261487
sg28
g29
(g30
(I0
tp54
g32
tp55
Rp56
(I1
(I4
tp57
g6
I00
S'2I\xe3e\xd3\x04D@z\t \xa53!\xf1?\xe6\xbe5\xc8\x1d&\x12@\x00\x00\x00\x00\x00\x00\xf0?'
p58
tp59
bsaF1.2578821182250977
aF0.12443709373474121
aF1.120224952697754
aS'16:30:06  04-07-16'
p60
a.