(lp0
(lp1
cnumpy.core.multiarray
scalar
p2
(cnumpy
dtype
p3
(S'f8'
p4
I0
I1
tp5
Rp6
(I3
S'<'
p7
NNNI-1
I-1
I0
tp8
bS'\x06\x1bn\xb7\xe6\x14\xef\xbf'
p9
tp10
Rp11
ag2
(g6
S'@\xd1\x1a\x9f\x1a\xfe\xb8?'
p12
tp13
Rp14
ag2
(g6
S'\xc0[\x0606\x99\x9c\xbf'
p15
tp16
Rp17
aa(dp18
S's'
p19
F1e-09
sS'd'
p20
(lp21
Fnan
asa(dp22
g20
I3
sS'n'
p23
I3
sa(dp24
ag2
(g6
S'\xa4<\x13\xe0\x15f3@'
p25
tp26
Rp27
aF1.0
a(dp28
a(lp29
Fnan
aFnan
aFnan
aa(dp30
S'didnotrun'
p31
I01
saF4.792213439941406e-05
aF0.12041211128234863
aF8.797645568847656e-05
aS'16:29:18  04-07-16'
p32
a.