(lp0
(lp1
cnumpy.core.multiarray
scalar
p2
(cnumpy
dtype
p3
(S'f8'
p4
I0
I1
tp5
Rp6
(I3
S'<'
p7
NNNI-1
I-1
I0
tp8
bS'\x12\xe6\x94\x7f,\xa8\xf9\xbf'
p9
tp10
Rp11
ag2
(g6
S'L\xd0\x02\x1f\xf7\xff\xff\xbf'
p12
tp13
Rp14
ag2
(g6
S'`\xf7\xbfa\xa55\xba?'
p15
tp16
Rp17
aa(dp18
S's'
p19
F1e-09
sS'd'
p20
(lp21
Fnan
asa(dp22
g20
I3
sS'n'
p23
I57
sa(dp24
S'logEImin'
p25
F-0.39710096506078985
sS'DIRECTmessage'
p26
S'Number of function evaluations done is larger then maxf'
p27
sS'MAPHYP'
p28
cnumpy.core.multiarray
_reconstruct
p29
(cnumpy
ndarray
p30
(I0
tp31
S'b'
p32
tp33
Rp34
(I1
(I4
tp35
g6
I00
S"\x98V;'p\xf1C@\x05pc\xb4\x9c\x10\xf1?c]\x90\x9e\xe7\x04\x16@\x00\x00\x00\x00\x00\x00\xf0?"
p36
tp37
bsag2
(g6
S'l\xdfH\xb59Q\x06@'
p38
tp39
Rp40
aF1.0
a(dp41
a(lp42
Fnan
aFnan
aFnan
aa(dp43
S'didnotrun'
p44
I01
saF1.638071060180664
aF0.11990094184875488
aF8.511543273925781e-05
aS'16:30:24  04-07-16'
p45
a.