(lp0
(lp1
cnumpy.core.multiarray
scalar
p2
(cnumpy
dtype
p3
(S'f8'
p4
I0
I1
tp5
Rp6
(I3
S'<'
p7
NNNI-1
I-1
I0
tp8
bS'\x809\x99\t\xca\x06\x92\xbf'
p9
tp10
Rp11
ag2
(g6
S'M\xa1\x9aeTm\xf6\xbf'
p12
tp13
Rp14
ag2
(g6
S'\x80\x92\xf7\xd7\xc1\x98\xb5\xbf'
p15
tp16
Rp17
aa(dp18
S's'
p19
F1e-09
sS'd'
p20
(lp21
Fnan
asa(dp22
g20
I3
sS'n'
p23
I75
sa(dp24
S'logEImin'
p25
F0.4553971959607647
sS'DIRECTmessage'
p26
S'Number of function evaluations done is larger then maxf'
p27
sS'MAPHYP'
p28
cnumpy.core.multiarray
_reconstruct
p29
(cnumpy
ndarray
p30
(I0
tp31
S'b'
p32
tp33
Rp34
(I1
(I4
tp35
g6
I00
S"\x0e\xaeB\xda6GB@#\xbfM?_\xb9\xf1?\xe73 d'\x91\x14@\x00\x00\x00\x00\x00\x00\xf0?"
p36
tp37
bsag2
(g6
S' \xfb\xe4\xd4Z\xb0\x00@'
p38
tp39
Rp40
aF1.0
a(dp41
a(lp42
Fnan
aFnan
aFnan
aa(dp43
S'didnotrun'
p44
I01
saF2.4129250049591064
aF0.12372517585754395
aF8.797645568847656e-05
aS'16:31:11  04-07-16'
p45
a.