(lp0
(lp1
cnumpy.core.multiarray
scalar
p2
(cnumpy
dtype
p3
(S'f8'
p4
I0
I1
tp5
Rp6
(I3
S'<'
p7
NNNI-1
I-1
I0
tp8
bS'\x00\xab\x9a\x04J7\xa7?'
p9
tp10
Rp11
ag2
(g6
S'\x99\x95F\x8f\xa8 \xf3\xbf'
p12
tp13
Rp14
ag2
(g6
S'\x9c;\x08\rru\xde\xbf'
p15
tp16
Rp17
aa(dp18
S's'
p19
F1e-09
sS'd'
p20
(lp21
Fnan
asa(dp22
g20
I3
sS'n'
p23
I62
sa(dp24
S'logEImin'
p25
F0.12278059185384958
sS'DIRECTmessage'
p26
S'Number of function evaluations done is larger then maxf'
p27
sS'MAPHYP'
p28
cnumpy.core.multiarray
_reconstruct
p29
(cnumpy
ndarray
p30
(I0
tp31
S'b'
p32
tp33
Rp34
(I1
(I4
tp35
g6
I00
S'I\x9d\xce.\xb5zD@\xc4\x94\xf1\xf2\xa4\xb0\xf2?\xa9\xedR\x82\x16\xb0\x15@\x00\x00\x00\x00\x00\x00\xf0?'
p36
tp37
bsag2
(g6
S'\x9fI\xe8p9/\x03@'
p38
tp39
Rp40
aF1.0
a(dp41
a(lp42
Fnan
aFnan
aFnan
aa(dp43
S'didnotrun'
p44
I01
saF2.1506340503692627
aF0.14029598236083984
aF0.00011706352233886719
aS'16:30:36  04-07-16'
p45
a.