(lp0
(lp1
cnumpy.core.multiarray
scalar
p2
(cnumpy
dtype
p3
(S'f8'
p4
I0
I1
tp5
Rp6
(I3
S'<'
p7
NNNI-1
I-1
I0
tp8
bS'P.r\x87\x06\xee\xe1?'
p9
tp10
Rp11
ag2
(g6
S'\xe4p\x08]\xe5\xff\xff\xbf'
p12
tp13
Rp14
ag2
(g6
S'\xfe\xcf\xd86\rX\xf2\xbf'
p15
tp16
Rp17
aa(dp18
S's'
p19
F1e-09
sS'd'
p20
(lp21
Fnan
asa(dp22
g20
I3
sS'n'
p23
I78
sa(dp24
S'logEImin'
p25
F0.5956820480273498
sS'DIRECTmessage'
p26
S'Number of function evaluations done is larger then maxf'
p27
sS'MAPHYP'
p28
cnumpy.core.multiarray
_reconstruct
p29
(cnumpy
ndarray
p30
(I0
tp31
S'b'
p32
tp33
Rp34
(I1
(I4
tp35
g6
I00
S'\x9a\xdf&\x9e\x00\xdeA@\xb5\xa1.\x1e\x12\x86\xf1?\x19\xf6EP]\xcd\x14@\x00\x00\x00\x00\x00\x00\xf0?'
p36
tp37
bsag2
(g6
S'\xc7(I\xc7 \xe5\xf9?'
p38
tp39
Rp40
aF1.0
a(dp41
a(lp42
Fnan
aFnan
aFnan
aa(dp43
S'didnotrun'
p44
I01
saF2.4519388675689697
aF0.12269306182861328
aF8.606910705566406e-05
aS'16:31:22  04-07-16'
p45
a.