(lp0
(lp1
cnumpy.core.multiarray
scalar
p2
(cnumpy
dtype
p3
(S'f8'
p4
I0
I1
tp5
Rp6
(I3
S'<'
p7
NNNI-1
I-1
I0
tp8
bS'p\x9d\xb6\x86\x07x\xea\xbf'
p9
tp10
Rp11
ag2
(g6
S'L\xd0\x02\x1f\xf7\xff\xff\xbf'
p12
tp13
Rp14
ag2
(g6
S'\xe06\xaf\xb9b,\xd2?'
p15
tp16
Rp17
aa(dp18
S's'
p19
F1e-09
sS'd'
p20
(lp21
Fnan
asa(dp22
g20
I3
sS'n'
p23
I86
sa(dp24
S'logEImin'
p25
F0.5805129893631134
sS'DIRECTmessage'
p26
S'Number of function evaluations done is larger then maxf'
p27
sS'MAPHYP'
p28
cnumpy.core.multiarray
_reconstruct
p29
(cnumpy
ndarray
p30
(I0
tp31
S'b'
p32
tp33
Rp34
(I1
(I4
tp35
g6
I00
S"\x98V;'p\xf1C@\xc7\xd2#C\x8d\xc8\xf3?\xa9\x8f\xe8Y\xba\xab\x18@\x00\x00\x00\x00\x00\x00\xf0?"
p36
tp37
bsag2
(g6
S'Z\xe0E\xaf1L\x00@'
p38
tp39
Rp40
aF1.0
a(dp41
a(lp42
Fnan
aFnan
aFnan
aa(dp43
S'didnotrun'
p44
I01
saF2.9401800632476807
aF0.12418413162231445
aF8.392333984375e-05
aS'16:31:51  04-07-16'
p45
a.