(lp0
(lp1
cnumpy.core.multiarray
scalar
p2
(cnumpy
dtype
p3
(S'f8'
p4
I0
I1
tp5
Rp6
(I3
S'<'
p7
NNNI-1
I-1
I0
tp8
bS'\x80\xa2<.\xff\xf4\xc9\xbf'
p9
tp10
Rp11
ag2
(g6
S'\xba5?,R\x06\xf6\xbf'
p12
tp13
Rp14
ag2
(g6
S'\x90M[\\!\t\xc6?'
p15
tp16
Rp17
aa(dp18
S's'
p19
F1e-09
sS'd'
p20
(lp21
Fnan
asa(dp22
g20
I3
sS'n'
p23
I37
sa(dp24
S'logEImin'
p25
F-0.7170950984548641
sS'DIRECTmessage'
p26
S'Number of function evaluations done is larger then maxf'
p27
sS'MAPHYP'
p28
cnumpy.core.multiarray
_reconstruct
p29
(cnumpy
ndarray
p30
(I0
tp31
S'b'
p32
tp33
Rp34
(I1
(I4
tp35
g6
I00
S'\xd34o*\xf1\xd2>@\x01/\x8b\x151\x05\xf5?8\xd2\x07\xb9\x0f\x90\x07@\x00\x00\x00\x00\x00\x00\xf0?'
p36
tp37
bsag2
(g6
S'\x85\x93\xfa\xed\x0cD\xfe?'
p38
tp39
Rp40
aF1.0
a(dp41
a(lp42
Fnan
aFnan
aFnan
aa(dp43
S'didnotrun'
p44
I01
saF1.2167880535125732
aF0.12411284446716309
aF8.606910705566406e-05
aS'16:29:48  04-07-16'
p45
a.