(lp0
(lp1
cnumpy.core.multiarray
scalar
p2
(cnumpy
dtype
p3
(S'f8'
p4
I0
I1
tp5
Rp6
(I3
S'<'
p7
NNNI-1
I-1
I0
tp8
bS'He\xfb\xb5\xc8\xe8\xd2?'
p9
tp10
Rp11
ag2
(g6
S'\xf4\xab)T\xb3\x8c\xea\xbf'
p12
tp13
Rp14
ag2
(g6
S'\xb3\xca\x95a[\x9a\xf4\xbf'
p15
tp16
Rp17
aa(dp18
S's'
p19
F1e-09
sS'd'
p20
(lp21
Fnan
asa(dp22
g20
I3
sS'n'
p23
I59
sa(dp24
S'logEImin'
p25
F-0.1683656190422727
sS'DIRECTmessage'
p26
S'Number of function evaluations done is larger then maxf'
p27
sS'MAPHYP'
p28
cnumpy.core.multiarray
_reconstruct
p29
(cnumpy
ndarray
p30
(I0
tp31
S'b'
p32
tp33
Rp34
(I1
(I4
tp35
g6
I00
S'26x\xeb\x99\xa2D@\xc4\x94\xf1\xf2\xa4\xb0\xf2?7\x85\xf4\xc0\xb7\x1e\x15@\x00\x00\x00\x00\x00\x00\xf0?'
p36
tp37
bsag2
(g6
S'\x13\xbd\xc1\xb2\xda\x07\x00@'
p38
tp39
Rp40
aF1.0
a(dp41
a(lp42
Fnan
aFnan
aFnan
aa(dp43
S'didnotrun'
p44
I01
saF1.634415864944458
aF0.12781095504760742
aF8.606910705566406e-05
aS'16:30:28  04-07-16'
p45
a.