(lp0
(lp1
cnumpy.core.multiarray
scalar
p2
(cnumpy
dtype
p3
(S'f8'
p4
I0
I1
tp5
Rp6
(I3
S'<'
p7
NNNI-1
I-1
I0
tp8
bS'\xb0|9\x14\xef\xa6\xdf?'
p9
tp10
Rp11
ag2
(g6
S'\xa1\x1e\x8f,J\xb3\xf5\xbf'
p12
tp13
Rp14
ag2
(g6
S'cf\xc0\x9d\x15\x16\xf2\xbf'
p15
tp16
Rp17
aa(dp18
S's'
p19
F1e-09
sS'd'
p20
(lp21
Fnan
asa(dp22
g20
I3
sS'n'
p23
I61
sa(dp24
S'logEImin'
p25
F-0.02125664280375838
sS'DIRECTmessage'
p26
S'Number of function evaluations done is larger then maxf'
p27
sS'MAPHYP'
p28
cnumpy.core.multiarray
_reconstruct
p29
(cnumpy
ndarray
p30
(I0
tp31
S'b'
p32
tp33
Rp34
(I1
(I4
tp35
g6
I00
S'I\x9d\xce.\xb5zD@\xc4\x94\xf1\xf2\xa4\xb0\xf2?\xe8\x81\x89\xc7(\x86\x15@\x00\x00\x00\x00\x00\x00\xf0?'
p36
tp37
bsag2
(g6
S'\xa7.\xa1\x85\x94\x9c\xf9?'
p38
tp39
Rp40
aF1.0
a(dp41
a(lp42
Fnan
aFnan
aFnan
aa(dp43
S'didnotrun'
p44
I01
saF1.7804489135742188
aF0.1226499080657959
aF8.916854858398438e-05
aS'16:30:33  04-07-16'
p45
a.