(lp0
(lp1
cnumpy.core.multiarray
scalar
p2
(cnumpy
dtype
p3
(S'f8'
p4
I0
I1
tp5
Rp6
(I3
S'<'
p7
NNNI-1
I-1
I0
tp8
bS'\xb0\x08LNT\xfa\xf3\xbf'
p9
tp10
Rp11
ag2
(g6
S'L\xd0\x02\x1f\xf7\xff\xff\xbf'
p12
tp13
Rp14
ag2
(g6
S'\x00\xeeXG_O\x9c?'
p15
tp16
Rp17
aa(dp18
S's'
p19
F1e-09
sS'd'
p20
(lp21
Fnan
asa(dp22
g20
I3
sS'n'
p23
I39
sa(dp24
S'logEImin'
p25
F-0.6071519071699126
sS'DIRECTmessage'
p26
S'Number of function evaluations done is larger then maxf'
p27
sS'MAPHYP'
p28
cnumpy.core.multiarray
_reconstruct
p29
(cnumpy
ndarray
p30
(I0
tp31
S'b'
p32
tp33
Rp34
(I1
(I4
tp35
g6
I00
S'\xbe\xc6I\xa7\x13t=@\r(\xef\xc2yi\xf3?8\xd2\x07\xb9\x0f\x90\x07@\x00\x00\x00\x00\x00\x00\xf0?'
p36
tp37
bsag2
(g6
S'G\x93\x8c@F\xb7\x08@'
p38
tp39
Rp40
aF1.0
a(dp41
a(lp42
Fnan
aFnan
aFnan
aa(dp43
S'didnotrun'
p44
I01
saF1.0245048999786377
aF0.12412595748901367
aF8.797645568847656e-05
aS'16:29:51  04-07-16'
p45
a.