(lp0
(lp1
cnumpy.core.multiarray
scalar
p2
(cnumpy
dtype
p3
(S'f8'
p4
I0
I1
tp5
Rp6
(I3
S'<'
p7
NNNI-1
I-1
I0
tp8
bS'\xe4\xee\xf5\xc1uv\xe4?'
p9
tp10
Rp11
ag2
(g6
S'D\xe2\xb9\xe4\xdaV\xf6\xbf'
p12
tp13
Rp14
ag2
(g6
S'\x9b\xd9\xd7\xe4\xb77\xf4\xbf'
p15
tp16
Rp17
aa(dp18
S's'
p19
F1e-09
sS'd'
p20
(lp21
Fnan
asa(dp22
g20
I3
sS'n'
p23
I81
sa(dp24
S'logEImin'
p25
F0.6235496280988791
sS'DIRECTmessage'
p26
S'Number of function evaluations done is larger then maxf'
p27
sS'MAPHYP'
p28
cnumpy.core.multiarray
_reconstruct
p29
(cnumpy
ndarray
p30
(I0
tp31
S'b'
p32
tp33
Rp34
(I1
(I4
tp35
g6
I00
S"\x0e\xaeB\xda6GB@)'\x1f\x90B\xed\xf1?c]\x90\x9e\xe7\x04\x16@\x00\x00\x00\x00\x00\x00\xf0?"
p36
tp37
bsag2
(g6
S',z\x07i\xa2\xa6\xf9?'
p38
tp39
Rp40
aF1.0
a(dp41
a(lp42
Fnan
aFnan
aFnan
aa(dp43
S'didnotrun'
p44
I01
saF2.5851919651031494
aF0.125946044921875
aF8.797645568847656e-05
aS'16:31:32  04-07-16'
p45
a.