(lp0
(lp1
cnumpy.core.multiarray
scalar
p2
(cnumpy
dtype
p3
(S'f8'
p4
I0
I1
tp5
Rp6
(I3
S'<'
p7
NNNI-1
I-1
I0
tp8
bS'\x98\x11\x1d\xb7\xcb\xbb\xc3\xbf'
p9
tp10
Rp11
ag2
(g6
S'\\\xa52.`\xff\xef?'
p12
tp13
Rp14
ag2
(g6
S'\xc0\xac4zD\x05\xc9?'
p15
tp16
Rp17
aa(dp18
S's'
p19
F1e-09
sS'd'
p20
(lp21
Fnan
asa(dp22
g20
I3
sS'n'
p23
I42
sa(dp24
S'logEImin'
p25
F-0.7071196734883156
sS'DIRECTmessage'
p26
S'Number of function evaluations done is larger then maxf'
p27
sS'MAPHYP'
p28
cnumpy.core.multiarray
_reconstruct
p29
(cnumpy
ndarray
p30
(I0
tp31
S'b'
p32
tp33
Rp34
(I1
(I4
tp35
g6
I00
S'\xd0\x14>\\s\x88?@T\xd4O\xc8\xbd!\xf2?\xcbeqcg\x96\x0c@\x00\x00\x00\x00\x00\x00\xf0?'
p36
tp37
bsag2
(g6
S"\xa8\xd2\x83\xcc\x96\xf0'@"
p38
tp39
Rp40
aF1.0
a(dp41
a(lp42
Fnan
aFnan
aFnan
aa(dp43
S'didnotrun'
p44
I01
saF1.1524629592895508
aF0.12509799003601074
aF8.296966552734375e-05
aS'16:29:55  04-07-16'
p45
a.