(lp0
(lp1
cnumpy.core.multiarray
scalar
p2
(cnumpy
dtype
p3
(S'f8'
p4
I0
I1
tp5
Rp6
(I3
S'<'
p7
NNNI-1
I-1
I0
tp8
bS'X\xea\x17\x9cI\x83\xfa\xbf'
p9
tp10
Rp11
ag2
(g6
S'\x00t\xcc\x9b\x92Rk?'
p12
tp13
Rp14
ag2
(g6
S'4ai\x9a\xc1\xed\xf3\xbf'
p15
tp16
Rp17
aa(dp18
S's'
p19
F1e-09
sS'd'
p20
(lp21
Fnan
asa(dp22
g20
I3
sS'n'
p23
I1
sa(dp24
ag2
(g6
S's\xbf\x86\x06\x07a@@'
p25
tp26
Rp27
aF1.0
a(dp28
a(lp29
Fnan
aFnan
aFnan
aa(dp30
S'didnotrun'
p31
I01
saF4.982948303222656e-05
aF0.12563705444335938
aF8.511543273925781e-05
aS'16:29:18  04-07-16'
p32
a.