(lp0
(lp1
cnumpy.core.multiarray
scalar
p2
(cnumpy
dtype
p3
(S'f8'
p4
I0
I1
tp5
Rp6
(I3
S'<'
p7
NNNI-1
I-1
I0
tp8
bS'\x00\x9c\x19s\xd3\x83q?'
p9
tp10
Rp11
ag2
(g6
S'L\xd0\x02\x1f\xf7\xff\xff\xbf'
p12
tp13
Rp14
ag2
(g6
S'L\xd0\x02\x1f\xf7\xff\xff\xbf'
p15
tp16
Rp17
aa(dp18
S's'
p19
F1e-09
sS'd'
p20
(lp21
Fnan
asa(dp22
g20
I3
sS'n'
p23
I44
sa(dp24
S'logEImin'
p25
F-0.5246405829863577
sS'DIRECTmessage'
p26
S'Number of function evaluations done is larger then maxf'
p27
sS'MAPHYP'
p28
cnumpy.core.multiarray
_reconstruct
p29
(cnumpy
ndarray
p30
(I0
tp31
S'b'
p32
tp33
Rp34
(I1
(I4
tp35
g6
I00
S'\xd34o*\xf1\xd2>@T\xd4O\xc8\xbd!\xf2?.P\xaeE\x18\xea\x0c@\x00\x00\x00\x00\x00\x00\xf0?'
p36
tp37
bsag2
(g6
S'\xbc\x88u\x86<\x89\n@'
p38
tp39
Rp40
aF1.0
a(dp41
a(lp42
g2
(g6
S'lW\xdf$\xef\xaf\xe3?'
p43
tp44
Rp45
ag2
(g6
S'\\\xb8\xabo\x92\xf7\xff\xbf'
p46
tp47
Rp48
ag2
(g6
S'\xb4\x97\xd0^B{\xf1\xbf'
p49
tp50
Rp51
aa(dp52
S'ymin'
p53
F1.2007259374571504
sg28
g29
(g30
(I0
tp54
g32
tp55
Rp56
(I1
(I4
tp57
g6
I00
S'Az\x0f~M\xca=@\xb9Ex\xf6\x9e\xef\xf0?h~$\xbe\xa8C\x0c@\x00\x00\x00\x00\x00\x00\xf0?'
p58
tp59
bsaF1.1406590938568115
aF0.12369990348815918
aF0.8282699584960938
aS'16:29:59  04-07-16'
p60
a.