(lp0
(lp1
cnumpy.core.multiarray
scalar
p2
(cnumpy
dtype
p3
(S'f8'
p4
I0
I1
tp5
Rp6
(I3
S'<'
p7
NNNI-1
I-1
I0
tp8
bS"@L\xdc\xb2\x18'\xc6?"
p9
tp10
Rp11
ag2
(g6
S'\xcaz\x95i\xaeJ\xfe\xbf'
p12
tp13
Rp14
ag2
(g6
S'\xfc\xb0H\x19x\xba\xfd\xbf'
p15
tp16
Rp17
aa(dp18
S's'
p19
F1e-09
sS'd'
p20
(lp21
Fnan
asa(dp22
g20
I3
sS'n'
p23
I98
sa(dp24
S'logEImin'
p25
F1.203671801215723
sS'DIRECTmessage'
p26
S'Number of function evaluations done is larger then maxf'
p27
sS'MAPHYP'
p28
cnumpy.core.multiarray
_reconstruct
p29
(cnumpy
ndarray
p30
(I0
tp31
S'b'
p32
tp33
Rp34
(I1
(I4
tp35
g6
I00
S'\x9a\xdf&\x9e\x00\xdeA@d8\xfb(\x8b\x9e\xf2?\xc8a\x11I\xe7\x92\x17@\x00\x00\x00\x00\x00\x00\xf0?'
p36
tp37
bsag2
(g6
S'\xa3E\x0c!m\x98\x03@'
p38
tp39
Rp40
aF1.0
a(dp41
a(lp42
Fnan
aFnan
aFnan
aa(dp43
S'didnotrun'
p44
I01
saF3.34774112701416
aF0.12533903121948242
aF8.392333984375e-05
aS'16:32:40  04-07-16'
p45
a.