(lp0
(lp1
cnumpy.core.multiarray
scalar
p2
(cnumpy
dtype
p3
(S'f8'
p4
I0
I1
tp5
Rp6
(I3
S'<'
p7
NNNI-1
I-1
I0
tp8
bS'\xa8\xd5}\x07@7\xd8\xbf'
p9
tp10
Rp11
ag2
(g6
S'\x14\xf0\x97\x8a \xfe\xef?'
p12
tp13
Rp14
ag2
(g6
S'\x86\x0c_\xfc<\xc5\xe1\xbf'
p15
tp16
Rp17
aa(dp18
S's'
p19
F1e-09
sS'd'
p20
(lp21
Fnan
asa(dp22
g20
I3
sS'n'
p23
I22
sa(dp24
S'logEImin'
p25
F-1.999879449589074
sS'DIRECTmessage'
p26
S'Number of function evaluations done is larger then maxf'
p27
sS'MAPHYP'
p28
cnumpy.core.multiarray
_reconstruct
p29
(cnumpy
ndarray
p30
(I0
tp31
S'b'
p32
tp33
Rp34
(I1
(I4
tp35
g6
I00
S'\xbe\x0cQpY\xb0@@\xc8]%\x14\x1d\xeb\xeb?\x0b\x9e2\x11\x8c\xc2\x05@\x00\x00\x00\x00\x00\x00\xf0?'
p36
tp37
bsag2
(g6
S'F"\xfc0\\?%@'
p38
tp39
Rp40
aF1.0
a(dp41
a(lp42
Fnan
aFnan
aFnan
aa(dp43
S'didnotrun'
p44
I01
saF0.5013868808746338
aF0.12551498413085938
aF9.012222290039062e-05
aS'16:29:30  04-07-16'
p45
a.