(lp0
(lp1
cnumpy.core.multiarray
scalar
p2
(cnumpy
dtype
p3
(S'f8'
p4
I0
I1
tp5
Rp6
(I3
S'<'
p7
NNNI-1
I-1
I0
tp8
bS'@\\!\tV\x83\xba?'
p9
tp10
Rp11
ag2
(g6
S'\n\xf8KE\x10\xff\xff\xbf'
p12
tp13
Rp14
ag2
(g6
S'\xbf\x9aB5\xcb\xa8\xf2\xbf'
p15
tp16
Rp17
aa(dp18
S's'
p19
F1e-09
sS'd'
p20
(lp21
Fnan
asa(dp22
g20
I3
sS'n'
p23
I26
sa(dp24
S'logEImin'
p25
F-1.4022927970660188
sS'DIRECTmessage'
p26
S'Number of function evaluations done is larger then maxf'
p27
sS'MAPHYP'
p28
cnumpy.core.multiarray
_reconstruct
p29
(cnumpy
ndarray
p30
(I0
tp31
S'b'
p32
tp33
Rp34
(I1
(I4
tp35
g6
I00
S'\xab\xc2\\-IP@@\xceqt\xa9\xcdG\xef?\x08\x95?\xcb\n\xd5\x07@\x00\x00\x00\x00\x00\x00\xf0?'
p36
tp37
bsag2
(g6
S'\xc3\x01\xb5><\xc1\x05@'
p38
tp39
Rp40
aF1.0
a(dp41
a(lp42
Fnan
aFnan
aFnan
aa(dp43
S'didnotrun'
p44
I01
saF0.7049520015716553
aF0.12402009963989258
aF8.988380432128906e-05
aS'16:29:34  04-07-16'
p45
a.