(lp0
(lp1
cnumpy.core.multiarray
scalar
p2
(cnumpy
dtype
p3
(S'f8'
p4
I0
I1
tp5
Rp6
(I3
S'<'
p7
NNNI-1
I-1
I0
tp8
bS'\xc0r\xe1\xae\xbeI\xce?'
p9
tp10
Rp11
ag2
(g6
S'W\xdf$\xef\xaf\x83\xf9\xbf'
p12
tp13
Rp14
ag2
(g6
S'\x94\xa4\xc6\xfd\x98O\xe8\xbf'
p15
tp16
Rp17
aa(dp18
S's'
p19
F1e-09
sS'd'
p20
(lp21
Fnan
asa(dp22
g20
I3
sS'n'
p23
I87
sa(dp24
S'logEImin'
p25
F0.8619997853088833
sS'DIRECTmessage'
p26
S'Number of function evaluations done is larger then maxf'
p27
sS'MAPHYP'
p28
cnumpy.core.multiarray
_reconstruct
p29
(cnumpy
ndarray
p30
(I0
tp31
S'b'
p32
tp33
Rp34
(I1
(I4
tp35
g6
I00
S"\x98V;'p\xf1C@\x14\x98F\xeaw\x02\xf4?tH\x99\xc0\xd5\x93\x18@\x00\x00\x00\x00\x00\x00\xf0?"
p36
tp37
bsag2
(g6
S'\xfa\x11\x80\x14\x82>\x00@'
p38
tp39
Rp40
aF1.0
a(dp41
a(lp42
Fnan
aFnan
aFnan
aa(dp43
S'didnotrun'
p44
I01
saF2.7851171493530273
aF0.12197279930114746
aF8.416175842285156e-05
aS'16:31:54  04-07-16'
p45
a.