(lp0
(lp1
cnumpy.core.multiarray
scalar
p2
(cnumpy
dtype
p3
(S'f8'
p4
I0
I1
tp5
Rp6
(I3
S'<'
p7
NNNI-1
I-1
I0
tp8
bS'\xb0\x06\x12\xf2Dy\xcc?'
p9
tp10
Rp11
ag2
(g6
S'\x98\xd0^B{\t\xed\xbf'
p12
tp13
Rp14
ag2
(g6
S'4\xe3\xa1\xeb\xc9)\xf9\xbf'
p15
tp16
Rp17
aa(dp18
S's'
p19
F1e-09
sS'd'
p20
(lp21
Fnan
asa(dp22
g20
I3
sS'n'
p23
I51
sa(dp24
S'logEImin'
p25
F-0.7593919028711892
sS'DIRECTmessage'
p26
S'Number of function evaluations done is larger then maxf'
p27
sS'MAPHYP'
p28
cnumpy.core.multiarray
_reconstruct
p29
(cnumpy
ndarray
p30
(I0
tp31
S'b'
p32
tp33
Rp34
(I1
(I4
tp35
g6
I00
S'q\x8b\xfe_\x9f\x12A@\xc8]%\x14\x1d\xeb\xeb?\xec\xf4\xaa\xdaYO\x0f@\x00\x00\x00\x00\x00\x00\xf0?'
p36
tp37
bsag2
(g6
S'\x8eK\\\xb1\xdb\xb7\x01@'
p38
tp39
Rp40
aF1.0
a(dp41
a(lp42
Fnan
aFnan
aFnan
aa(dp43
S'didnotrun'
p44
I01
saF1.4249308109283447
aF0.12145709991455078
aF8.20159912109375e-05
aS'16:30:11  04-07-16'
p45
a.