(lp0
(lp1
cnumpy.core.multiarray
scalar
p2
(cnumpy
dtype
p3
(S'f8'
p4
I0
I1
tp5
Rp6
(I3
S'<'
p7
NNNI-1
I-1
I0
tp8
bS'@\x16\x06\xe4\xac\x11\xcb\xbf'
p9
tp10
Rp11
ag2
(g6
S'\n\xf8KE\x10\xff\xff\xbf'
p12
tp13
Rp14
ag2
(g6
S'\xb8\xd3\xad\xf9a\x91\xd2\xbf'
p15
tp16
Rp17
aa(dp18
S's'
p19
F1e-09
sS'd'
p20
(lp21
Fnan
asa(dp22
g20
I3
sS'n'
p23
I19
sa(dp24
S'logEImin'
p25
F-2.333736732817683
sS'DIRECTmessage'
p26
S'Number of function evaluations done is larger then maxf'
p27
sS'MAPHYP'
p28
cnumpy.core.multiarray
_reconstruct
p29
(cnumpy
ndarray
p30
(I0
tp31
S'b'
p32
tp33
Rp34
(I1
(I4
tp35
g6
I00
S'\x0e\xaeB\xda6GB@\x87s\xee\xee\xbd\xe3\xed?`A\xfd\x80\xaeB\x06@\x00\x00\x00\x00\x00\x00\xf0?'
p36
tp37
bsag2
(g6
S'\x80\xb65\x8a\xdc\xa1\x08@'
p38
tp39
Rp40
aF1.0
a(dp41
a(lp42
Fnan
aFnan
aFnan
aa(dp43
S'didnotrun'
p44
I01
saF0.4715909957885742
aF0.12365412712097168
aF8.487701416015625e-05
aS'16:29:27  04-07-16'
p45
a.