(lp0
(lp1
cnumpy.core.multiarray
scalar
p2
(cnumpy
dtype
p3
(S'f8'
p4
I0
I1
tp5
Rp6
(I3
S'<'
p7
NNNI-1
I-1
I0
tp8
bS'\xa0;N\x04"\xa1\xef?'
p9
tp10
Rp11
ag2
(g6
S'\xd0\x1c\xb8\xb1\xab\xa6\xc3?'
p12
tp13
Rp14
ag2
(g6
S'0\x1a\xe5})\x82\xe1?'
p15
tp16
Rp17
aa(dp18
S's'
p19
F1e-09
sS'd'
p20
(lp21
Fnan
asa(dp22
g20
I3
sS'n'
p23
I2
sa(dp24
ag2
(g6
S'\x9a\xfc\x1a:~xO@'
p25
tp26
Rp27
aF1.0
a(dp28
a(lp29
Fnan
aFnan
aFnan
aa(dp30
S'didnotrun'
p31
I01
saF3.981590270996094e-05
aF0.12398600578308105
aF8.797645568847656e-05
aS'16:29:18  04-07-16'
p32
a.