(lp0
(lp1
cnumpy.core.multiarray
scalar
p2
(cnumpy
dtype
p3
(S'f8'
p4
I0
I1
tp5
Rp6
(I3
S'<'
p7
NNNI-1
I-1
I0
tp8
bS'`\xd3\x16WH\x82\xc5\xbf'
p9
tp10
Rp11
ag2
(g6
S'\x98\t\xca\x06\x12\xf2\xe4\xbf'
p12
tp13
Rp14
ag2
(g6
S'\xc0\x82I$\x9eK\xee\xbf'
p15
tp16
Rp17
aa(dp18
S's'
p19
F1e-09
sS'd'
p20
(lp21
Fnan
asa(dp22
g20
I3
sS'n'
p23
I89
sa(dp24
S'logEImin'
p25
F0.8984710075516817
sS'DIRECTmessage'
p26
S'Number of function evaluations done is larger then maxf'
p27
sS'MAPHYP'
p28
cnumpy.core.multiarray
_reconstruct
p29
(cnumpy
ndarray
p30
(I0
tp31
S'b'
p32
tp33
Rp34
(I1
(I4
tp35
g6
I00
S'2I\xe3e\xd3\x04D@0\xb8D\xb7\xeb\x15\xf4?\x8f\x894\xd2\x00=\x19@\x00\x00\x00\x00\x00\x00\xf0?'
p36
tp37
bsag2
(g6
S'\xe3\x0e\x93\x19\x0bd\x12@'
p38
tp39
Rp40
aF1.0
a(dp41
a(lp42
Fnan
aFnan
aFnan
aa(dp43
S'didnotrun'
p44
I01
saF2.8635849952697754
aF0.1227569580078125
aF8.893013000488281e-05
aS'16:32:02  04-07-16'
p45
a.