(lp0
(lp1
cnumpy.core.multiarray
scalar
p2
(cnumpy
dtype
p3
(S'f8'
p4
I0
I1
tp5
Rp6
(I3
S'<'
p7
NNNI-1
I-1
I0
tp8
bS'`\x16!\xb0\x9e\xfd\xac\xbf'
p9
tp10
Rp11
ag2
(g6
S'\xaeR\x19\x17\xb0\xff\xff\xbf'
p12
tp13
Rp14
ag2
(g6
S'\xb0\x01\xf3,\x80K\xc1?'
p15
tp16
Rp17
aa(dp18
S's'
p19
F1e-09
sS'd'
p20
(lp21
Fnan
asa(dp22
g20
I3
sS'n'
p23
I29
sa(dp24
S'logEImin'
p25
F-1.1514575991837956
sS'DIRECTmessage'
p26
S'Number of function evaluations done is larger then maxf'
p27
sS'MAPHYP'
p28
cnumpy.core.multiarray
_reconstruct
p29
(cnumpy
ndarray
p30
(I0
tp31
S'b'
p32
tp33
Rp34
(I1
(I4
tp35
g6
I00
S'\xd34o*\xf1\xd2>@\xc6\xb6\x12\x98C\xed\xee?8\xd2\x07\xb9\x0f\x90\x07@\x00\x00\x00\x00\x00\x00\xf0?'
p36
tp37
bsag2
(g6
S'\x806J\xf4\xb9&\xff?'
p38
tp39
Rp40
aF1.0
a(dp41
a(lp42
Fnan
aFnan
aFnan
aa(dp43
S'didnotrun'
p44
I01
saF0.7478978633880615
aF0.12424015998840332
aF8.702278137207031e-05
aS'16:29:37  04-07-16'
p45
a.