(lp0
(lp1
cnumpy.core.multiarray
scalar
p2
(cnumpy
dtype
p3
(S'f8'
p4
I0
I1
tp5
Rp6
(I3
S'<'
p7
NNNI-1
I-1
I0
tp8
bS'\x9a\x98\x19pg\x85\xe5\xbf'
p9
tp10
Rp11
ag2
(g6
S'\xaeR\x19\x17\xb0\xff\xff\xbf'
p12
tp13
Rp14
ag2
(g6
S'\xdca\xb4Q\x92\x1a\xd7\xbf'
p15
tp16
Rp17
aa(dp18
S's'
p19
F1e-09
sS'd'
p20
(lp21
Fnan
asa(dp22
g20
I3
sS'n'
p23
I47
sa(dp24
S'logEImin'
p25
F-1.4242575020717665
sS'DIRECTmessage'
p26
S'Number of function evaluations done is larger then maxf'
p27
sS'MAPHYP'
p28
cnumpy.core.multiarray
_reconstruct
p29
(cnumpy
ndarray
p30
(I0
tp31
S'b'
p32
tp33
Rp34
(I1
(I4
tp35
g6
I00
S"D\xc1@\xe1\x89\xca<@_c\xef*\x04'\xe4?\xc9zNM\xc2\xb3\n@\x00\x00\x00\x00\x00\x00\xf0?"
p36
tp37
bsag2
(g6
S'\xc8\x17\x02\nt\xbf\x12@'
p38
tp39
Rp40
aF1.0
a(dp41
a(lp42
Fnan
aFnan
aFnan
aa(dp43
S'didnotrun'
p44
I01
saF1.1942319869995117
aF0.12155008316040039
aF8.797645568847656e-05
aS'16:30:03  04-07-16'
p45
a.