(lp0
(lp1
cnumpy.core.multiarray
scalar
p2
(cnumpy
dtype
p3
(S'f8'
p4
I0
I1
tp5
Rp6
(I3
S'<'
p7
NNNI-1
I-1
I0
tp8
bS'\xf0S.r\x87\x06\xee?'
p9
tp10
Rp11
ag2
(g6
S'\xe4p\x08]\xe5\xff\xff\xbf'
p12
tp13
Rp14
ag2
(g6
S'4p\x0f\xbfJ\xcf\xea\xbf'
p15
tp16
Rp17
aa(dp18
S's'
p19
F1e-09
sS'd'
p20
(lp21
Fnan
asa(dp22
g20
I3
sS'n'
p23
I45
sa(dp24
S'logEImin'
p25
F-0.5048749646321025
sS'DIRECTmessage'
p26
S'Number of function evaluations done is larger then maxf'
p27
sS'MAPHYP'
p28
cnumpy.core.multiarray
_reconstruct
p29
(cnumpy
ndarray
p30
(I0
tp31
S'b'
p32
tp33
Rp34
(I1
(I4
tp35
g6
I00
S'Az\x0f~M\xca=@\xb9Ex\xf6\x9e\xef\xf0?h~$\xbe\xa8C\x0c@\x00\x00\x00\x00\x00\x00\xf0?'
p36
tp37
bsag2
(g6
S'[\t\xaaW\x15\xa5G@'
p38
tp39
Rp40
aF1.0
a(dp41
a(lp42
Fnan
aFnan
aFnan
aa(dp43
S'didnotrun'
p44
I01
saF1.109694004058838
aF0.12316107749938965
aF8.392333984375e-05
aS'16:30:00  04-07-16'
p45
a.