(lp0
(lp1
cnumpy.core.multiarray
scalar
p2
(cnumpy
dtype
p3
(S'f8'
p4
I0
I1
tp5
Rp6
(I3
S'<'
p7
NNNI-1
I-1
I0
tp8
bS'\xac\xe8\xca\xe5\xd4\xe5\xd3\xbf'
p9
tp10
Rp11
ag2
(g6
S'L\xd0\x02\x1f\xf7\xff\xff\xbf'
p12
tp13
Rp14
ag2
(g6
S'\xd0b\xa8\x08{\x1d\xd0?'
p15
tp16
Rp17
aa(dp18
S's'
p19
F1e-09
sS'd'
p20
(lp21
Fnan
asa(dp22
g20
I3
sS'n'
p23
I85
sa(dp24
S'logEImin'
p25
F0.7561487267169413
sS'DIRECTmessage'
p26
S'Number of function evaluations done is larger then maxf'
p27
sS'MAPHYP'
p28
cnumpy.core.multiarray
_reconstruct
p29
(cnumpy
ndarray
p30
(I0
tp31
S'b'
p32
tp33
Rp34
(I1
(I4
tp35
g6
I00
S'\xc0I\x93j\xb9|B@\xbdt\xb5\xe6\x82\x8c\xf2?JI\x11\xa1\x82\xc8\x16@\x00\x00\x00\x00\x00\x00\xf0?'
p36
tp37
bsag2
(g6
S' \x01\xdfR\x8d\xe9\xfe?'
p38
tp39
Rp40
aF1.0
a(dp41
a(lp42
Fnan
aFnan
aFnan
aa(dp43
S'didnotrun'
p44
I01
saF2.8888540267944336
aF0.1231389045715332
aF8.511543273925781e-05
aS'16:31:47  04-07-16'
p45
a.