(lp0
(lp1
cnumpy.core.multiarray
scalar
p2
(cnumpy
dtype
p3
(S'f8'
p4
I0
I1
tp5
Rp6
(I3
S'<'
p7
NNNI-1
I-1
I0
tp8
bS'\x887\xec\x16U\x8a\xc5\xbf'
p9
tp10
Rp11
ag2
(g6
S'\xe0\x00\xd5\xfd+\xe7\xa0?'
p12
tp13
Rp14
ag2
(g6
S'L\xa3\xed\x0f\x91\xfd\xec\xbf'
p15
tp16
Rp17
aa(dp18
S's'
p19
F1e-06
sS'xa'
p20
F0.3408858292410327
sS'd'
p21
(lp22
Fnan
asa(dp23
g21
I3
sS'n'
p24
I3
sa(dp25
ag2
(g6
S"3\x8dj'\xcf\x8dJ@"
p26
tp27
Rp28
aF0.6985569999999997
a(dp29
a(lp30
Fnan
aFnan
aFnan
aa(dp31
S'didnotrun'
p32
I01
saF5.221366882324219e-05
aF0.6983208656311035
aF0.00010514259338378906
aS'12:38:17  06-07-16'
p33
a.