(lp0
(lp1
cnumpy.core.multiarray
scalar
p2
(cnumpy
dtype
p3
(S'f8'
p4
I0
I1
tp5
Rp6
(I3
S'<'
p7
NNNI-1
I-1
I0
tp8
bS'\xe0\x14C\xb3EG\xa9\xbf'
p9
tp10
Rp11
ag2
(g6
S'\xd0\xb6u6\xdf\x91\xb1?'
p12
tp13
Rp14
ag2
(g6
S'\xf6\xc7\xe8V\xe1\x0e\xe8?'
p15
tp16
Rp17
aa(dp18
S's'
p19
F1e-06
sS'xa'
p20
F0.14935711880681046
sS'd'
p21
(lp22
Fnan
asa(dp23
g21
I3
sS'n'
p24
I10
sa(dp25
ag2
(g6
S'\xc1f\xcb\xebN\xd0\xfb?'
p26
tp27
Rp28
aF0.7157119999999999
a(dp29
a(lp30
g2
(g6
S'x\t\xed%\xb4\x97\xe0?'
p31
tp32
Rp33
ag2
(g6
S'X\xa4\x0c<\xdd\x9a\xef\xbf'
p34
tp35
Rp36
ag2
(g6
S'X\xa4\x0c<\xdd\x9a\xef?'
p37
tp38
Rp39
aa(dp40
S'ymin'
p41
F6.757530292085277e-12
sS'MAPHYP'
p42
cnumpy.core.multiarray
_reconstruct
p43
(cnumpy
ndarray
p44
(I0
tp45
S'b'
p46
tp47
Rp48
(I1
(I5
tp49
g6
I00
S'\xd34o*\xf1\xd2>@\xc7\x08&R\xd3\x14\x91?\xe8T*\t\xac\x03O@\xe8T*\t\xac\x03O@i\xe4\xe7\xdcc\xd9\xe3?'
p50
tp51
bsaF5.0067901611328125e-05
aF0.7154710292816162
aF0.7127718925476074
aS'12:38:28  06-07-16'
p52
a.