(lp0
(lp1
cnumpy.core.multiarray
scalar
p2
(cnumpy
dtype
p3
(S'f8'
p4
I0
I1
tp5
Rp6
(I3
S'<'
p7
NNNI-1
I-1
I0
tp8
bS'\xd8>\x80\xb02\xe6\xda\xbf'
p9
tp10
Rp11
ag2
(g6
S'\x94O\xfd\xfa\x9c\xbb\xe3\xbf'
p12
tp13
Rp14
ag2
(g6
S'\x84\x0c\x84\x92\xa7\xf6\xea?'
p15
tp16
Rp17
aa(dp18
S's'
p19
F1e-06
sS'xa'
p20
F0.4324826145035249
sS'd'
p21
(lp22
Fnan
asa(dp23
g21
I3
sS'n'
p24
I6
sa(dp25
ag2
(g6
S'"\xf7\xe3\t\xc06\xfd?'
p26
tp27
Rp28
aF0.7054860000000005
a(dp29
a(lp30
Fnan
aFnan
aFnan
aa(dp31
S'didnotrun'
p32
I01
saF6.103515625e-05
aF0.7052459716796875
aF0.00011301040649414062
aS'12:38:21  06-07-16'
p33
a.