(lp0
(lp1
cnumpy.core.multiarray
scalar
p2
(cnumpy
dtype
p3
(S'f8'
p4
I0
I1
tp5
Rp6
(I3
S'<'
p7
NNNI-1
I-1
I0
tp8
bS'\n\x1a@\x93Q\xbd\xe8?'
p9
tp10
Rp11
ag2
(g6
S'\x00\x04|\xb9w|a\xbf'
p12
tp13
Rp14
ag2
(g6
S'\xe01\rG\xfc\xa7\xde?'
p15
tp16
Rp17
aa(dp18
S's'
p19
F1e-06
sS'xa'
p20
F0.914521856513291
sS'd'
p21
(lp22
Fnan
asa(dp23
g21
I3
sS'n'
p24
I7
sa(dp25
ag2
(g6
S'#\x1e<b\xfad\x00@'
p26
tp27
Rp28
aF0.7044519999999999
a(dp29
a(lp30
Fnan
aFnan
aFnan
aa(dp31
S'didnotrun'
p32
I01
saF5.2928924560546875e-05
aF0.704226016998291
aF0.00011205673217773438
aS'12:38:23  06-07-16'
p33
a.