(lp0
(lp1
cnumpy.core.multiarray
scalar
p2
(cnumpy
dtype
p3
(S'f8'
p4
I0
I1
tp5
Rp6
(I3
S'<'
p7
NNNI-1
I-1
I0
tp8
bS'H\xbc\x19<\x1a\x0b\xca\xbf'
p9
tp10
Rp11
ag2
(g6
S'*\xad\rZA\xf3\xef\xbf'
p12
tp13
Rp14
ag2
(g6
S'\xe0\xb9\xb2Z\xda\x00\xe0\xbf'
p15
tp16
Rp17
aa(dp18
S's'
p19
F1e-06
sS'xa'
p20
F0.6333888020912951
sS'd'
p21
(lp22
Fnan
asa(dp23
g21
I3
sS'n'
p24
I8
sa(dp25
ag2
(g6
S'~\xe4O\xbf\x82:%@'
p26
tp27
Rp28
aF0.6983750000000004
a(dp29
a(lp30
Fnan
aFnan
aFnan
aa(dp31
S'didnotrun'
p32
I01
saF6.794929504394531e-05
aF0.6981401443481445
aF0.00011777877807617188
aS'12:38:24  06-07-16'
p33
a.