(lp0
(lp1
cnumpy.core.multiarray
scalar
p2
(cnumpy
dtype
p3
(S'f8'
p4
I0
I1
tp5
Rp6
(I3
S'<'
p7
NNNI-1
I-1
I0
tp8
bS'\x88D\xb1\r\x85\xd3\xcc\xbf'
p9
tp10
Rp11
ag2
(g6
S'\\\x87\n\x95,J\xe8\xbf'
p12
tp13
Rp14
ag2
(g6
S'\x8a\xa0\xa6W\xa3\xa2\xe4\xbf'
p15
tp16
Rp17
aa(dp18
S's'
p19
F1e-06
sS'xa'
p20
F0.8602139761459386
sS'd'
p21
(lp22
Fnan
asa(dp23
g21
I3
sS'n'
p24
I9
sa(dp25
ag2
(g6
S'\x11\x96\xd7\xb2/\xbe&@'
p26
tp27
Rp28
aF0.7155560000000012
a(dp29
a(lp30
Fnan
aFnan
aFnan
aa(dp31
S'didnotrun'
p32
I01
saF7.081031799316406e-05
aF0.715339183807373
aF0.00012087821960449219
aS'12:38:25  06-07-16'
p33
a.