(lp0
(lp1
cnumpy.core.multiarray
scalar
p2
(cnumpy
dtype
p3
(S'f8'
p4
I0
I1
tp5
Rp6
(I3
S'<'
p7
NNNI-1
I-1
I0
tp8
bS"\x94s\xd1\xa1'}\xd0?"
p9
tp10
Rp11
ag2
(g6
S'\xe8\xb97\x8b\xc3\xb5\xdc?'
p12
tp13
Rp14
ag2
(g6
S'\x1e_\xbbc\xc5\x82\xe9\xbf'
p15
tp16
Rp17
aa(dp18
S's'
p19
F1e-06
sS'xa'
p20
F0.6330578301864215
sS'd'
p21
(lp22
Fnan
asa(dp23
g21
I3
sS'n'
p24
I5
sa(dp25
ag2
(g6
S'\xf7\x13\x18\xd9\x85\xf94@'
p26
tp27
Rp28
aF0.700323
a(dp29
a(lp30
Fnan
aFnan
aFnan
aa(dp31
S'didnotrun'
p32
I01
saF7.390975952148438e-05
aF0.7000870704650879
aF0.00010800361633300781
aS'12:38:20  06-07-16'
p33
a.