(lp0
(lp1
cnumpy.core.multiarray
scalar
p2
(cnumpy
dtype
p3
(S'f8'
p4
I0
I1
tp5
Rp6
(I3
S'<'
p7
NNNI-1
I-1
I0
tp8
bS'\x00\xb5\x01F\x93`\x98\xbf'
p9
tp10
Rp11
ag2
(g6
S'f\xc3it1\x93\xe9?'
p12
tp13
Rp14
ag2
(g6
S'P!C\xac\x8a4\xd3\xbf'
p15
tp16
Rp17
aa(dp18
S's'
p19
F1e-06
sS'xa'
p20
F0.13964281312422544
sS'd'
p21
(lp22
Fnan
asa(dp23
g21
I3
sS'n'
p24
I4
sa(dp25
ag2
(g6
S'\x8c\x81q\xef&0+@'
p26
tp27
Rp28
aF0.7058160000000004
a(dp29
a(lp30
Fnan
aFnan
aFnan
aa(dp31
S'didnotrun'
p32
I01
saF5.1975250244140625e-05
aF0.705578088760376
aF0.00010895729064941406
aS'12:38:18  06-07-16'
p33
a.