(lp0
(lp1
cnumpy.core.multiarray
scalar
p2
(cnumpy
dtype
p3
(S'f8'
p4
I0
I1
tp5
Rp6
(I3
S'<'
p7
NNNI-1
I-1
I0
tp8
bS'zlq\xda\xdf\xd0\xec\xbf'
p9
tp10
Rp11
ag2
(g6
S'\x904\xea\x85\xe1\xb5\xd0\xbf'
p12
tp13
Rp14
ag2
(g6
S'"\xc1\xf1\nSy\xe4\xbf'
p15
tp16
Rp17
aa(dp18
S's'
p19
F1e-06
sS'xa'
p20
F0.832503083165964
sS'd'
p21
(lp22
Fnan
asa(dp23
g21
I3
sS'n'
p24
I1
sa(dp25
ag2
(g6
S't\x0c\x1f\x9e\x0e\x85Q@'
p26
tp27
Rp28
aF0.7023029999999999
a(dp29
a(lp30
Fnan
aFnan
aFnan
aa(dp31
S'didnotrun'
p32
I01
saF5.2928924560546875e-05
aF0.7020730972290039
aF9.393692016601562e-05
aS'12:38:14  06-07-16'
p33
a.