(lp0
(lp1
cnumpy.core.multiarray
scalar
p2
(cnumpy
dtype
p3
(S'f8'
p4
I0
I1
tp5
Rp6
(I3
S'<'
p7
NNNI-1
I-1
I0
tp8
bS'\xb8\xbfa\xd2\x17\x92\xd2\xbf'
p9
tp10
Rp11
ag2
(g6
S'\x16y\x88\xc2\xbe0\xe7\xbf'
p12
tp13
Rp14
ag2
(g6
S'`\xfe\x03\xdc\xf4.\xcb\xbf'
p15
tp16
Rp17
aa(dp18
S's'
p19
F1e-06
sS'xa'
p20
F0.2796558763372552
sS'd'
p21
(lp22
Fnan
asa(dp23
g21
I3
sS'n'
p24
I2
sa(dp25
ag2
(g6
S'\x81L\xb0\x84\x0b-!@'
p26
tp27
Rp28
aF0.6971720000000001
a(dp29
a(lp30
Fnan
aFnan
aFnan
aa(dp31
S'didnotrun'
p32
I01
saF5.4836273193359375e-05
aF0.6969661712646484
aF9.894371032714844e-05
aS'12:38:15  06-07-16'
p33
a.