(lp0
(lp1
cnumpy.core.multiarray
scalar
p2
(cnumpy
dtype
p3
(S'f8'
p4
I0
I1
tp5
Rp6
(I3
S'<'
p7
NNNI-1
I-1
I0
tp8
bS'@\xa0\xb8\xbd\x87t\xd8\xbf'
p9
tp10
Rp11
ag2
(g6
S'8\xdbL\x10\x17F\xd0\xbf'
p12
tp13
Rp14
aa(dp15
S's'
p16
F0.0
sS'd'
p17
(lp18
Fnan
asaNa(dp19
ag2
(g6
S'0Qi \xa1`\xd1?'
p20
tp21
Rp22
aF1.0
a(dp23
a(lp24
g2
(g6
S'\x00@\x1b\x8f\xf7\xa2\x1a?'
p25
tp26
Rp27
ag2
(g6
S'\xd0;\x84\xe3\x99\x98\xb9?'
p28
tp29
Rp30
aa(dp31
S'ymin'
p32
F-2.5250017642974854e-05
sS'MAPHYP'
p33
cnumpy.core.multiarray
_reconstruct
p34
(cnumpy
ndarray
p35
(I0
tp36
S'b'
p37
tp38
Rp39
(I1
(I3
tp40
g6
I00
S'%\x1a:\x92\x98\xb6\x83@D\x0b\x16\x83\xf6|O@\r]\xc3\xb6\x8d\x8aO@'
p41
tp42
bsaF4.8160552978515625e-05
aF5.4836273193359375e-05
aF0.4300050735473633
aS'15:44:40  08-06-16'
p43
a.