(lp0
(lp1
cnumpy.core.multiarray
scalar
p2
(cnumpy
dtype
p3
(S'f8'
p4
I0
I1
tp5
Rp6
(I3
S'<'
p7
NNNI-1
I-1
I0
tp8
bS'\xbcvV\xd8fM\xe9\xbf'
p9
tp10
Rp11
ag2
(g6
S'\xac\xef\xf1\xcfa\x7f\xe0\xbf'
p12
tp13
Rp14
aa(dp15
S's'
p16
F0.0
sS'd'
p17
(lp18
Fnan
asaNa(dp19
ag2
(g6
S'+\xdf;\xbd\xd0\x10\xf0?'
p20
tp21
Rp22
aF1.0
a(dp23
a(lp24
g2
(g6
S'\x00\x00\x00\x00\x00\x00\x00\x00'
p25
tp26
Rp27
ag2
(g6
S'\xd0;\x84\xe3\x99\x98\xb9?'
p28
tp29
Rp30
aa(dp31
S'ymin'
p32
F1.5605241060256958e-05
sS'MAPHYP'
p33
cnumpy.core.multiarray
_reconstruct
p34
(cnumpy
ndarray
p35
(I0
tp36
S'b'
p37
tp38
Rp39
(I1
(I3
tp40
g6
I00
S"t\xc4\xad\x96\xacPz@\r]\xc3\xb6\x8d\x8aO@\x86m)]'\x87O@"
p41
tp42
bsaF5.1975250244140625e-05
aF5.888938903808594e-05
aF0.6513330936431885
aS'15:44:46  08-06-16'
p43
a.