(lp0
(lp1
cnumpy.core.multiarray
scalar
p2
(cnumpy
dtype
p3
(S'f8'
p4
I0
I1
tp5
Rp6
(I3
S'<'
p7
NNNI-1
I-1
I0
tp8
bS'`\xa5\rFl\xdb\xa1\xbf'
p9
tp10
Rp11
ag2
(g6
S'^\x0eYr\n\xc8\xec\xbf'
p12
tp13
Rp14
aa(dp15
S's'
p16
F0.0
sS'd'
p17
(lp18
Fnan
asaNa(dp19
ag2
(g6
S'\xc0\xb2\xf4\x819\x00\xf0?'
p20
tp21
Rp22
aF1.0
a(dp23
a(lp24
Fnan
aFnan
aa(dp25
S'didnotrun'
p26
I01
saF4.100799560546875e-05
aF5.0067901611328125e-05
aF4.601478576660156e-05
aS'15:44:39  08-06-16'
p27
a.