(lp0
(lp1
cnumpy.core.multiarray
scalar
p2
(cnumpy
dtype
p3
(S'f8'
p4
I0
I1
tp5
Rp6
(I3
S'<'
p7
NNNI-1
I-1
I0
tp8
bS'\xdc\x9c\xae\xc4\x1d\xfc\xdb\xbf'
p9
tp10
Rp11
ag2
(g6
S'\xde\xe0\xbfz\xb3\xc0\xe6\xbf'
p12
tp13
Rp14
aa(dp15
S's'
p16
F0.0
sS'd'
p17
(lp18
Fnan
asaNa(dp19
ag2
(g6
S'W\x99\xf3\x91\xa8*\xeb?'
p20
tp21
Rp22
aF1.0
a(dp23
a(lp24
Fnan
aFnan
aa(dp25
S'didnotrun'
p26
I01
saF3.1948089599609375e-05
aF4.38690185546875e-05
aF4.315376281738281e-05
aS'15:44:39  08-06-16'
p27
a.