(lp0
(lp1
cnumpy.core.multiarray
scalar
p2
(cnumpy
dtype
p3
(S'f8'
p4
I0
I1
tp5
Rp6
(I3
S'<'
p7
NNNI-1
I-1
I0
tp8
bS'\x00oM(\xe23\xb7?'
p9
tp10
Rp11
ag2
(g6
S'HCr\xf0\x8dK\xc1\xbf'
p12
tp13
Rp14
aa(dp15
S's'
p16
F0.0
sS'd'
p17
(lp18
Fnan
asaNa(dp19
ag2
(g6
S'\xccx\x1b};A\xb0?'
p20
tp21
Rp22
aF1.0
a(dp23
a(lp24
Fnan
aFnan
aa(dp25
S'didnotrun'
p26
I01
saF3.2901763916015625e-05
aF3.910064697265625e-05
aF2.6941299438476562e-05
aS'15:44:39  08-06-16'
p27
a.