(lp0
(lp1
cnumpy.core.multiarray
scalar
p2
(cnumpy
dtype
p3
(S'f8'
p4
I0
I1
tp5
Rp6
(I3
S'<'
p7
NNNI-1
I-1
I0
tp8
bS'0\x0fZE\x84\xf3\xd8?'
p9
tp10
Rp11
ag2
(g6
S'8\xb6\x92~\x9e\x85\xc6\xbf'
p12
tp13
Rp14
aa(dp15
S's'
p16
F0.0
sS'd'
p17
(lp18
Fnan
asaNa(dp19
ag2
(g6
S'\x82\xd9\x11J\xcb3\xcd?'
p20
tp21
Rp22
aF1.0
a(dp23
a(lp24
g2
(g6
S'\x00\x00\x00\x00\x00\x00\x00\x00'
p25
tp26
Rp27
ag2
(g6
S'\x00u\xa0%\xf1\x91\xb9?'
p28
tp29
Rp30
aa(dp31
S'ymin'
p32
F1.1309981346130371e-05
sS'MAPHYP'
p33
cnumpy.core.multiarray
_reconstruct
p34
(cnumpy
ndarray
p35
(I0
tp36
S'b'
p37
tp38
Rp39
(I1
(I3
tp40
g6
I00
S'c\xdf\xe6\xae\xf7\x81y@\r]\xc3\xb6\x8d\x8aO@\r]\xc3\xb6\x8d\x8aO@'
p41
tp42
bsaF4.8160552978515625e-05
aF5.602836608886719e-05
aF0.988447904586792
aS'15:44:48  08-06-16'
p43
a.