(lp0
(lp1
cnumpy.core.multiarray
scalar
p2
(cnumpy
dtype
p3
(S'f8'
p4
I0
I1
tp5
Rp6
(I3
S'<'
p7
NNNI-1
I-1
I0
tp8
bS'R\xcd\x0f\xe5%\xb0\xe8?'
p9
tp10
Rp11
ag2
(g6
S':\x7f\x93(:\xc3\xe4?'
p12
tp13
Rp14
aa(dp15
S's'
p16
F0.0
sS'd'
p17
(lp18
Fnan
asaNa(dp19
ag2
(g6
S'\xbcx\xf4\x1b\x92\xaf\xec?'
p20
tp21
Rp22
aF1.0
a(dp23
a(lp24
g2
(g6
S'\x00\x00\x00\x00\x00\x00\x00\x00'
p25
tp26
Rp27
ag2
(g6
S'`\xc9K_\xeb\xa5\xb9?'
p28
tp29
Rp30
aa(dp31
S'ymin'
p32
F1.9165687263011932e-05
sS'MAPHYP'
p33
cnumpy.core.multiarray
_reconstruct
p34
(cnumpy
ndarray
p35
(I0
tp36
S'b'
p37
tp38
Rp39
(I1
(I3
tp40
g6
I00
S'%\x1a:\x92\x98\xb6\x83@\xa3\xe1\xe2\xac\x89\x16N@h\xaa\xc6\x00TTO@'
p41
tp42
bsaF5.1975250244140625e-05
aF5.91278076171875e-05
aF0.1956639289855957
aS'15:44:39  08-06-16'
p43
a.