(lp0
(lp1
cnumpy.core.multiarray
scalar
p2
(cnumpy
dtype
p3
(S'f8'
p4
I0
I1
tp5
Rp6
(I3
S'<'
p7
NNNI-1
I-1
I0
tp8
bS'\xaeC\xcc\xb2\x16\x98\xe0\xbf'
p9
tp10
Rp11
ag2
(g6
S'\xc0*\xdf\xe0\x94\xa7\xe3?'
p12
tp13
Rp14
aa(dp15
S's'
p16
F0.0
sS'd'
p17
(lp18
Fnan
asaNa(dp19
ag2
(g6
S'\xd20\x80}\xf2\x10\xe1?'
p20
tp21
Rp22
aF1.0
a(dp23
a(lp24
g2
(g6
S'\x00\x00\x00\x00\x00\x00\x00\x00'
p25
tp26
Rp27
ag2
(g6
S'\x00u\xa0%\xf1\x91\xb9?'
p28
tp29
Rp30
aa(dp31
S'ymin'
p32
F3.2782554626464844e-06
sS'MAPHYP'
p33
cnumpy.core.multiarray
_reconstruct
p34
(cnumpy
ndarray
p35
(I0
tp36
S'b'
p37
tp38
Rp39
(I1
(I3
tp40
g6
I00
S'\x96\x7f\xc7\x88\xb6\x1fy@\r]\xc3\xb6\x8d\x8aO@\r]\xc3\xb6\x8d\x8aO@'
p41
tp42
bsaF5.1975250244140625e-05
aF6.008148193359375e-05
aF0.7718250751495361
aS'15:44:49  08-06-16'
p43
a.