(lp0
(lp1
cnumpy.core.multiarray
scalar
p2
(cnumpy
dtype
p3
(S'f8'
p4
I0
I1
tp5
Rp6
(I3
S'<'
p7
NNNI-1
I-1
I0
tp8
bS'P\xa7\xe7q\r\xcb\xbc\xbf'
p9
tp10
Rp11
ag2
(g6
S'\xe8\xdc\xd5\x13R8\xc9?'
p12
tp13
Rp14
aa(dp15
S's'
p16
F0.0
sS'd'
p17
(lp18
Fnan
asaNa(dp19
ag2
(g6
S'\x96\xfaqrJ\x98\x96?'
p20
tp21
Rp22
aF1.0
a(dp23
a(lp24
Fnan
aFnan
aa(dp25
S'didnotrun'
p26
I01
saF3.409385681152344e-05
aF4.100799560546875e-05
aF3.0040740966796875e-05
aS'15:44:39  08-06-16'
p27
a.