(lp0
(lp1
cnumpy.core.multiarray
scalar
p2
(cnumpy
dtype
p3
(S'f8'
p4
I0
I1
tp5
Rp6
(I3
S'<'
p7
NNNI-1
I-1
I0
tp8
bS'\xe8\x0c\xc7\xcf\xba\xfe\xcc?'
p9
tp10
Rp11
ag2
(g6
S'\x18m\xc6\xdf`_\xd0?'
p12
tp13
Rp14
aa(dp15
S's'
p16
F1e-09
sS'd'
p17
(lp18
Fnan
asa(dp19
g17
I2
sS'n'
p20
I75
sa(dp21
S'logEImin'
p22
F10.27061417044716
sS'DIRECTmessage'
p23
S'Number of function evaluations done is larger then maxf'
p24
sS'MAPHYP'
p25
cnumpy.core.multiarray
_reconstruct
p26
(cnumpy
ndarray
p27
(I0
tp28
S'b'
p29
tp30
Rp31
(I1
(I3
tp32
g6
I00
S'k\xe49\x9ax\xb4\x83@ \xf3\x93\xbe\x9fU\x14@L\xe8\xf1(UtA@'
p33
tp34
bsag2
(g6
S'\x9bv\n\xe0!\xe3\x12?'
p35
tp36
Rp37
aF1.0
a(dp38
a(lp39
Fnan
aFnan
aa(dp40
S'didnotrun'
p41
I01
saF2.635038137435913
aF0.00015592575073242188
aF5.984306335449219e-05
aS'16:22:50  04-07-16'
p42
a.