(lp0
(lp1
cnumpy.core.multiarray
scalar
p2
(cnumpy
dtype
p3
(S'f8'
p4
I0
I1
tp5
Rp6
(I3
S'<'
p7
NNNI-1
I-1
I0
tp8
bS'\xe0\xe5k\xc4\x99\xfe\xd4\xbf'
p9
tp10
Rp11
ag2
(g6
S'H7^\x17\xdd \xcd\xbf'
p12
tp13
Rp14
aa(dp15
S's'
p16
F1e-09
sS'd'
p17
(lp18
Fnan
asa(dp19
g17
I2
sS'n'
p20
I3
sa(dp21
ag2
(g6
S'\x1e\xac\xabv\xd7\x8e\xf7?'
p22
tp23
Rp24
aF1.0
a(dp25
a(lp26
Fnan
aFnan
aa(dp27
S'didnotrun'
p28
I01
saF4.315376281738281e-05
aF7.796287536621094e-05
aF3.790855407714844e-05
aS'16:20:51  04-07-16'
p29
a.