(lp0
(lp1
cnumpy.core.multiarray
scalar
p2
(cnumpy
dtype
p3
(S'f8'
p4
I0
I1
tp5
Rp6
(I3
S'<'
p7
NNNI-1
I-1
I0
tp8
bS'\xf0\x04\xa9\xc6\x99"\xcb?'
p9
tp10
Rp11
ag2
(g6
S'\xba\x15Y)\xf4\xff\xef?'
p12
tp13
Rp14
aa(dp15
S's'
p16
F1e-09
sS'd'
p17
(lp18
Fnan
asa(dp19
g17
I2
sS'n'
p20
I16
sa(dp21
S'logEImin'
p22
F1.3213701276682097
sS'DIRECTmessage'
p23
S'Number of function evaluations done is larger then maxf'
p24
sS'MAPHYP'
p25
cnumpy.core.multiarray
_reconstruct
p26
(cnumpy
ndarray
p27
(I0
tp28
S'b'
p29
tp30
Rp31
(I1
(I3
tp32
g6
I00
S'\xf7\x1c\xb3\xfa\xa0\x17\x83@L.\x177\xd3\xbb\x0b@m\x8a\xcaC\xae\xb18@'
p33
tp34
bsag2
(g6
S"\xf7'\x99\xd1\x12\x0b\xf8?"
p35
tp36
Rp37
aF1.0
a(dp38
a(lp39
g2
(g6
S'\x80\x19C\x13\x9dQ\x9f?'
p40
tp41
Rp42
ag2
(g6
S' ZYN(\x97\x9e\xbf'
p43
tp44
Rp45
aa(dp46
S'ymin'
p47
F-0.06492931675165892
sg25
g26
(g27
(I0
tp48
g29
tp49
Rp50
(I1
(I3
tp51
g6
I00
S'\x08\xc7\xed\x11\x1a\xae\x83@\xd4=\x9d7I(\x0c@\t\xbcI\xd4\xc8\xe18@'
p52
tp53
bsaF0.5356230735778809
aF0.00019693374633789062
aF0.6639609336853027
aS'16:20:56  04-07-16'
p54
a.