(lp0
(lp1
cnumpy.core.multiarray
scalar
p2
(cnumpy
dtype
p3
(S'f8'
p4
I0
I1
tp5
Rp6
(I3
S'<'
p7
NNNI-1
I-1
I0
tp8
bS'P3\x85\x9c\xd1\xeb\xc6?'
p9
tp10
Rp11
ag2
(g6
S'\x08\xd5[r\x06I\xc4?'
p12
tp13
Rp14
aa(dp15
S's'
p16
F1e-09
sS'd'
p17
(lp18
Fnan
asa(dp19
g17
I2
sS'n'
p20
I66
sa(dp21
S'logEImin'
p22
F9.038339248306755
sS'DIRECTmessage'
p23
S'Number of function evaluations done is larger then maxf'
p24
sS'MAPHYP'
p25
cnumpy.core.multiarray
_reconstruct
p26
(cnumpy
ndarray
p27
(I0
tp28
S'b'
p29
tp30
Rp31
(I1
(I3
tp32
g6
I00
S'k\xe49\x9ax\xb4\x83@\x1dOzk\xc5\xb3\x13@\x84\x9ag\x7f\xe0\xee@@'
p33
tp34
bsag2
(g6
S'\xda\x93x,\x819\x06?'
p35
tp36
Rp37
aF1.0
a(dp38
a(lp39
Fnan
aFnan
aa(dp40
S'didnotrun'
p41
I01
saF2.493374824523926
aF0.0001571178436279297
aF5.984306335449219e-05
aS'16:22:24  04-07-16'
p42
a.