(lp0
(lp1
cnumpy.core.multiarray
scalar
p2
(cnumpy
dtype
p3
(S'f8'
p4
I0
I1
tp5
Rp6
(I3
S'<'
p7
NNNI-1
I-1
I0
tp8
bS'\xa4"\xbe\xca\xce\x98\xdc?'
p9
tp10
Rp11
ag2
(g6
S'\xe2\xce\xe9D\xec\xff\xef?'
p12
tp13
Rp14
aa(dp15
S's'
p16
F1e-09
sS'd'
p17
(lp18
Fnan
asa(dp19
g17
I2
sS'n'
p20
I74
sa(dp21
S'logEImin'
p22
F10.247003034769458
sS'DIRECTmessage'
p23
S'Number of function evaluations done is larger then maxf'
p24
sS'MAPHYP'
p25
cnumpy.core.multiarray
_reconstruct
p26
(cnumpy
ndarray
p27
(I0
tp28
S'b'
p29
tp30
Rp31
(I1
(I3
tp32
g6
I00
S'k\xe49\x9ax\xb4\x83@\xc3\xd8\xbb?\xeeA\x14@\x8f\x90\xa6@\xa3\x7fA@'
p33
tp34
bsag2
(g6
S'\xde\x93Odn\x19Y?'
p35
tp36
Rp37
aF1.0
a(dp38
a(lp39
Fnan
aFnan
aa(dp40
S'didnotrun'
p41
I01
saF2.794233798980713
aF0.00015807151794433594
aF6.198883056640625e-05
aS'16:22:48  04-07-16'
p42
a.