(lp0
(lp1
cnumpy.core.multiarray
scalar
p2
(cnumpy
dtype
p3
(S'f8'
p4
I0
I1
tp5
Rp6
(I3
S'<'
p7
NNNI-1
I-1
I0
tp8
bS'\x90Up!GA\xb7?'
p9
tp10
Rp11
ag2
(g6
S'@\xed/\xe9\xdd^\xa6?'
p12
tp13
Rp14
aa(dp15
S's'
p16
F1e-09
sS'd'
p17
(lp18
Fnan
asa(dp19
g17
I2
sS'n'
p20
I89
sa(dp21
S'logEImin'
p22
F11.825503732116214
sS'DIRECTmessage'
p23
S'Number of function evaluations done is larger then maxf'
p24
sS'MAPHYP'
p25
cnumpy.core.multiarray
_reconstruct
p26
(cnumpy
ndarray
p27
(I0
tp28
S'b'
p29
tp30
Rp31
(I1
(I3
tp32
g6
I00
S'\x08\xc7\xed\x11\x1a\xae\x83@\xdf\x9a\xed\x86\x81\x8a\x14@\xd4\xae.\xae\xd7gB@'
p33
tp34
bsag2
(g6
S' \x81\xac<\xb2\xd6.?'
p35
tp36
Rp37
aF1.0
a(dp38
a(lp39
Fnan
aFnan
aa(dp40
S'didnotrun'
p41
I01
saF3.0772039890289307
aF0.00015306472778320312
aF5.793571472167969e-05
aS'16:23:43  04-07-16'
p42
a.