(lp0
(lp1
cnumpy.core.multiarray
scalar
p2
(cnumpy
dtype
p3
(S'f8'
p4
I0
I1
tp5
Rp6
(I3
S'<'
p7
NNNI-1
I-1
I0
tp8
bS'h\xda{(\x16a\xd6?'
p9
tp10
Rp11
ag2
(g6
S'\xf0iE\xed\xdfu\xe3?'
p12
tp13
Rp14
aa(dp15
S's'
p16
F1e-09
sS'd'
p17
(lp18
Fnan
asa(dp19
g17
I2
sS'n'
p20
I71
sa(dp21
S'logEImin'
p22
F9.741040679074896
sS'DIRECTmessage'
p23
S'Number of function evaluations done is larger then maxf'
p24
sS'MAPHYP'
p25
cnumpy.core.multiarray
_reconstruct
p26
(cnumpy
ndarray
p27
(I0
tp28
S'b'
p29
tp30
Rp31
(I1
(I3
tp32
g6
I00
S'k\xe49\x9ax\xb4\x83@\xe2\xcaiE\xe6\xf3\x13@\x04\x80\xfb^\x0eiA@'
p33
tp34
bsag2
(g6
S'+\x1c\xf5\xf2!%C?'
p35
tp36
Rp37
aF1.0
a(dp38
a(lp39
Fnan
aFnan
aa(dp40
S'didnotrun'
p41
I01
saF2.4443609714508057
aF0.0001590251922607422
aF5.698204040527344e-05
aS'16:22:37  04-07-16'
p42
a.