(lp0
(lp1
cnumpy.core.multiarray
scalar
p2
(cnumpy
dtype
p3
(S'f8'
p4
I0
I1
tp5
Rp6
(I3
S'<'
p7
NNNI-1
I-1
I0
tp8
bS'`\xfe\xc6\x94;i\xa7?'
p9
tp10
Rp11
ag2
(g6
S'\xa0\xe2$$W\x1c\xaf\xbf'
p12
tp13
Rp14
aa(dp15
S's'
p16
F1e-09
sS'd'
p17
(lp18
Fnan
asa(dp19
g17
I2
sS'n'
p20
I20
sa(dp21
S'logEImin'
p22
F2.372170715602783
sS'DIRECTmessage'
p23
S'Number of function evaluations done is larger then maxf'
p24
sS'MAPHYP'
p25
cnumpy.core.multiarray
_reconstruct
p26
(cnumpy
ndarray
p27
(I0
tp28
S'b'
p29
tp30
Rp31
(I1
(I3
tp32
g6
I00
S'k\xe49\x9ax\xb4\x83@e\x97\xd7Y\xb9\xba\r@t\xcc\\\x98\x96\xe89@'
p33
tp34
bsag2
(g6
S'\xd7\xe9\x9a\xa5F\x1c\x8b?'
p35
tp36
Rp37
aF1.0
a(dp38
a(lp39
g2
(g6
S'\x10U]\xa8\x05\x0f\xcf?'
p40
tp41
Rp42
ag2
(g6
S'\xa4\x900\x0e\xdf\x96\xd0?'
p43
tp44
Rp45
aa(dp46
S'ymin'
p47
F-0.016469723545014858
sg25
g26
(g27
(I0
tp48
g29
tp49
Rp50
(I1
(I3
tp51
g6
I00
S'k\xe49\x9ax\xb4\x83@\x08v\xb8\xdd[\x94\r@\xcd7\xcfW6I;@'
p52
tp53
bsaF0.9075870513916016
aF0.0001590251922607422
aF0.33240509033203125
aS'16:21:01  04-07-16'
p54
a.