(lp0
(lp1
cnumpy.core.multiarray
scalar
p2
(cnumpy
dtype
p3
(S'f8'
p4
I0
I1
tp5
Rp6
(I3
S'<'
p7
NNNI-1
I-1
I0
tp8
bS'h\xa6\xc2n\x14?\xca?'
p9
tp10
Rp11
ag2
(g6
S'\x80\x86\x18\x0f\xf6l\xcb?'
p12
tp13
Rp14
aa(dp15
S's'
p16
F1e-09
sS'd'
p17
(lp18
Fnan
asa(dp19
g17
I2
sS'n'
p20
I58
sa(dp21
S'logEImin'
p22
F8.027458356867337
sS'DIRECTmessage'
p23
S'Number of function evaluations done is larger then maxf'
p24
sS'MAPHYP'
p25
cnumpy.core.multiarray
_reconstruct
p26
(cnumpy
ndarray
p27
(I0
tp28
S'b'
p29
tp30
Rp31
(I1
(I3
tp32
g6
I00
S'k\xe49\x9ax\xb4\x83@pt\xed \x9e\n\x13@\xb4f\xd3\xbd\xa6\xad@@'
p33
tp34
bsag2
(g6
S'\xd2\xf1Y\xc8S\xa3\x11?'
p35
tp36
Rp37
aF1.0
a(dp38
a(lp39
Fnan
aFnan
aa(dp40
S'didnotrun'
p41
I01
saF2.0372509956359863
aF0.00015091896057128906
aF4.792213439941406e-05
aS'16:22:03  04-07-16'
p42
a.