(lp0
(lp1
cnumpy.core.multiarray
scalar
p2
(cnumpy
dtype
p3
(S'f8'
p4
I0
I1
tp5
Rp6
(I3
S'<'
p7
NNNI-1
I-1
I0
tp8
bS'@\xbd\xb7\x07\xf0*\xb3?'
p9
tp10
Rp11
ag2
(g6
S'\xf8\xc1C8\xa7&\xd0?'
p12
tp13
Rp14
aa(dp15
S's'
p16
F1e-09
sS'd'
p17
(lp18
Fnan
asa(dp19
g17
I2
sS'n'
p20
I9
sa(dp21
ag2
(g6
S'\xe4\xd1\x88\xd5V&\xc0?'
p22
tp23
Rp24
aF1.0
a(dp25
a(lp26
Fnan
aFnan
aa(dp27
S'didnotrun'
p28
I01
saF6.413459777832031e-05
aF0.00012087821960449219
aF5.91278076171875e-05
aS'16:20:51  04-07-16'
p29
a.