(lp0
(lp1
cnumpy.core.multiarray
scalar
p2
(cnumpy
dtype
p3
(S'f8'
p4
I0
I1
tp5
Rp6
(I3
S'<'
p7
NNNI-1
I-1
I0
tp8
bS'\xf8\x96\xce|\xac\xa6\xcb?'
p9
tp10
Rp11
ag2
(g6
S'\xe8aSG\\\xe3\xcd?'
p12
tp13
Rp14
aa(dp15
S's'
p16
F1e-09
sS'd'
p17
(lp18
Fnan
asa(dp19
g17
I2
sS'n'
p20
I86
sa(dp21
S'logEImin'
p22
F11.465337232068354
sS'DIRECTmessage'
p23
S'Number of function evaluations done is larger then maxf'
p24
sS'MAPHYP'
p25
cnumpy.core.multiarray
_reconstruct
p26
(cnumpy
ndarray
p27
(I0
tp28
S'b'
p29
tp30
Rp31
(I1
(I3
tp32
g6
I00
S'\xf8\x05\x9d\xd0\n\x9b\x83@ \xf3\x93\xbe\x9fU\x14@d\xd5\xff\xa9\xe4aB@'
p33
tp34
bsag2
(g6
S'\xac\x15\x89\x98\x0f\n\xf2>'
p35
tp36
Rp37
aF1.0
a(dp38
a(lp39
Fnan
aFnan
aa(dp40
S'didnotrun'
p41
I01
saF3.177155017852783
aF0.00015091896057128906
aF4.792213439941406e-05
aS'16:23:30  04-07-16'
p42
a.