(lp0
(lp1
cnumpy.core.multiarray
scalar
p2
(cnumpy
dtype
p3
(S'f8'
p4
I0
I1
tp5
Rp6
(I3
S'<'
p7
NNNI-1
I-1
I0
tp8
bS'\xb4By\x8e9\x84\xd5?'
p9
tp10
Rp11
ag2
(g6
S'\\\xd4h\xach0\xe2?'
p12
tp13
Rp14
aa(dp15
S's'
p16
F1e-09
sS'd'
p17
(lp18
Fnan
asa(dp19
g17
I2
sS'n'
p20
I46
sa(dp21
S'logEImin'
p22
F6.61160029661932
sS'DIRECTmessage'
p23
S'Number of function evaluations done is larger then maxf'
p24
sS'MAPHYP'
p25
cnumpy.core.multiarray
_reconstruct
p26
(cnumpy
ndarray
p27
(I0
tp28
S'b'
p29
tp30
Rp31
(I1
(I3
tp32
g6
I00
S'\xf8\x05\x9d\xd0\n\x9b\x83@\xbd\xe7@\xe6\x95\xf1\x11@\x95\xae*\xf6y\xb6?@'
p33
tp34
bsag2
(g6
S'\xf9\xe2*=\xf2\x84A?'
p35
tp36
Rp37
aF1.0
a(dp38
a(lp39
Fnan
aFnan
aa(dp40
S'didnotrun'
p41
I01
saF1.3780598640441895
aF0.00015091896057128906
aF4.506111145019531e-05
aS'16:21:37  04-07-16'
p42
a.