(lp0
(lp1
cnumpy.core.multiarray
scalar
p2
(cnumpy
dtype
p3
(S'f8'
p4
I0
I1
tp5
Rp6
(I3
S'<'
p7
NNNI-1
I-1
I0
tp8
bS'$bB\xb0\xb0\x85\xd3?'
p9
tp10
Rp11
ag2
(g6
S'\xa0@*>5/\xdf?'
p12
tp13
Rp14
aa(dp15
S's'
p16
F1e-09
sS'd'
p17
(lp18
Fnan
asa(dp19
g17
I2
sS'n'
p20
I35
sa(dp21
S'logEImin'
p22
F5.2690324506293384
sS'DIRECTmessage'
p23
S'Number of function evaluations done is larger then maxf'
p24
sS'MAPHYP'
p25
cnumpy.core.multiarray
_reconstruct
p26
(cnumpy
ndarray
p27
(I0
tp28
S'b'
p29
tp30
Rp31
(I1
(I3
tp32
g6
I00
S'nl\xec\x08\x0f&\x83@K=\x1c\xa9\x84\xd7\x0f@+\xc3\xae\xe4\xc8\xf5=@'
p33
tp34
bsag2
(g6
S'"Z)d<0X?'
p35
tp36
Rp37
aF1.0
a(dp38
a(lp39
Fnan
aFnan
aa(dp40
S'didnotrun'
p41
I01
saF1.2384920120239258
aF0.00015687942504882812
aF5.91278076171875e-05
aS'16:21:18  04-07-16'
p42
a.