(lp0
(lp1
cnumpy.core.multiarray
scalar
p2
(cnumpy
dtype
p3
(S'f8'
p4
I0
I1
tp5
Rp6
(I3
S'<'
p7
NNNI-1
I-1
I0
tp8
bS'\xb08\xd7\x8d{e\xb0\xbf'
p9
tp10
Rp11
ag2
(g6
S'\xc0\xd5\xf9\xddgZ\xa3?'
p12
tp13
Rp14
aa(dp15
S's'
p16
F1e-09
sS'd'
p17
(lp18
Fnan
asa(dp19
g17
I2
sS'n'
p20
I36
sa(dp21
S'logEImin'
p22
F5.329640412901206
sS'DIRECTmessage'
p23
S'Number of function evaluations done is larger then maxf'
p24
sS'MAPHYP'
p25
cnumpy.core.multiarray
_reconstruct
p26
(cnumpy
ndarray
p27
(I0
tp28
S'b'
p29
tp30
Rp31
(I1
(I3
tp32
g6
I00
S'>\xe0\xac$u\x11\x83@K=\x1c\xa9\x84\xd7\x0f@\xfd \xb6\x10\xcct>@'
p33
tp34
bsag2
(g6
S'Q\xe3\xd9\xf0\xcbnd?'
p35
tp36
Rp37
aF1.0
a(dp38
a(lp39
g2
(g6
S'\xe8sE\x8c\xd5?\xdc?'
p40
tp41
Rp42
ag2
(g6
S'\x02HU\x81\xb8\xf2\xee?'
p43
tp44
Rp45
aa(dp46
S'ymin'
p47
F-0.001163487322628498
sg25
g26
(g27
(I0
tp48
g29
tp49
Rp50
(I1
(I3
tp51
g6
I00
S'=K\x83\x14\xbb\xa9\x82@K=\x1c\xa9\x84\xd7\x0f@X\x95\x19\xd5e\x19>@'
p52
tp53
bsaF1.2395429611206055
aF0.00015997886657714844
aF0.910991907119751
aS'16:21:20  04-07-16'
p54
a.