(lp0
(lp1
cnumpy.core.multiarray
scalar
p2
(cnumpy
dtype
p3
(S'f8'
p4
I0
I1
tp5
Rp6
(I3
S'<'
p7
NNNI-1
I-1
I0
tp8
bS'\xc0)\x92\x9e <\xcb?'
p9
tp10
Rp11
ag2
(g6
S'\xc8\xda4\xb5\xb2%\xcd?'
p12
tp13
Rp14
aa(dp15
S's'
p16
F1e-09
sS'd'
p17
(lp18
Fnan
asa(dp19
g17
I2
sS'n'
p20
I98
sa(dp21
S'logEImin'
p22
F12.709576198864806
sS'DIRECTmessage'
p23
S'Number of function evaluations done is larger then maxf'
p24
sS'MAPHYP'
p25
cnumpy.core.multiarray
_reconstruct
p26
(cnumpy
ndarray
p27
(I0
tp28
S'b'
p29
tp30
Rp31
(I1
(I3
tp32
g6
I00
S'\xf8\x05\x9d\xd0\n\x9b\x83@~\x078\x81C\n\x15@r\x9f\xd3T\xb5\x97B@'
p33
tp34
bsag2
(g6
S'\x80\xc3\x94Q\xeb\xaf\xe5>'
p35
tp36
Rp37
aF1.0
a(dp38
a(lp39
Fnan
aFnan
aa(dp40
S'didnotrun'
p41
I01
saF3.850432872772217
aF0.00015401840209960938
aF5.91278076171875e-05
aS'16:24:20  04-07-16'
p42
a.