(lp0
(lp1
cnumpy.core.multiarray
scalar
p2
(cnumpy
dtype
p3
(S'f8'
p4
I0
I1
tp5
Rp6
(I3
S'<'
p7
NNNI-1
I-1
I0
tp8
bS'\xf0Z\xc2\x12\xf1\xba\xc0?'
p9
tp10
Rp11
ag2
(g6
S'\xf0\xeb\xf3\x11\x1b<\xb8?'
p12
tp13
Rp14
aa(dp15
S's'
p16
F1e-09
sS'd'
p17
(lp18
Fnan
asa(dp19
g17
I2
sS'n'
p20
I40
sa(dp21
S'logEImin'
p22
F5.746457439762684
sS'DIRECTmessage'
p23
S'Number of function evaluations done is larger then maxf'
p24
sS'MAPHYP'
p25
cnumpy.core.multiarray
_reconstruct
p26
(cnumpy
ndarray
p27
(I0
tp28
S'b'
p29
tp30
Rp31
(I1
(I3
tp32
g6
I00
S'\xc4\x14\x92+\x80#\x82@~\xda\xf3\x9f\xa9\xd8\x0f@\xdc\x00\\O\x9a\x94>@'
p33
tp34
bsag2
(g6
S'W\xb2\xc9!\xa4\xd37?'
p35
tp36
Rp37
aF1.0
a(dp38
a(lp39
g2
(g6
S'P\x19C\x13\x9dQ\xcf?'
p40
tp41
Rp42
ag2
(g6
S'\x10\xd7x\x87p<\xd3?'
p43
tp44
Rp45
aa(dp46
S'ymin'
p47
F-0.00038079358637332916
sg25
g26
(g27
(I0
tp48
g29
tp49
Rp50
(I1
(I3
tp51
g6
I00
S'\x17;\x17\xc3\x8a\xcc\x81@\x0b\x07\xe8I\x0b\xd9\x0f@N\xa2d\xb1gL>@'
p52
tp53
bsaF1.3507699966430664
aF0.00015997886657714844
aF1.308699131011963
aS'16:21:27  04-07-16'
p54
a.