(lp0
(lp1
cnumpy.core.multiarray
scalar
p2
(cnumpy
dtype
p3
(S'f8'
p4
I0
I1
tp5
Rp6
(I3
S'<'
p7
NNNI-1
I-1
I0
tp8
bS'pc\nv8\x05\xb4\xbf'
p9
tp10
Rp11
ag2
(g6
S'l\x8e\xe0\xd4#I\xea?'
p12
tp13
Rp14
aa(dp15
S's'
p16
F1e-09
sS'd'
p17
(lp18
Fnan
asa(dp19
g17
I2
sS'n'
p20
I8
sa(dp21
ag2
(g6
S'\xfdm\xb7\xbc\x84\x0c\xf9?'
p22
tp23
Rp24
aF1.0
a(dp25
a(lp26
Fnan
aFnan
aa(dp27
S'didnotrun'
p28
I01
saF4.1961669921875e-05
aF8.606910705566406e-05
aF4.00543212890625e-05
aS'16:20:51  04-07-16'
p29
a.