(lp0
(lp1
cnumpy.core.multiarray
scalar
p2
(cnumpy
dtype
p3
(S'f8'
p4
I0
I1
tp5
Rp6
(I3
S'<'
p7
NNNI-1
I-1
I0
tp8
bS'\xc4\xcc\x80;+,\xc4\xbf'
p9
tp10
Rp11
ag2
(g6
S'\x80\xdb\xd6\xc11\xb3\xc3?'
p12
tp13
Rp14
aa(dp15
S's'
p16
F1e-09
sS'd'
p17
(lp18
Fnan
asa(dp19
g17
I2
sS'n'
p20
I56
sa(dp21
S'logEImin'
p22
F7.685939587743119
sS'DIRECTmessage'
p23
S'Number of function evaluations done is larger then maxf'
p24
sS'MAPHYP'
p25
cnumpy.core.multiarray
_reconstruct
p26
(cnumpy
ndarray
p27
(I0
tp28
S'b'
p29
tp30
Rp31
(I1
(I3
tp32
g6
I00
S'k\xe49\x9ax\xb4\x83@\xae@\x16\xdd\x80\xd3\x12@\x196\xc9O\xe0\xa2@@'
p33
tp34
bsag2
(g6
S'\x8c\t\xbd\xbe\xb53v?'
p35
tp36
Rp37
aF1.0
a(dp38
a(lp39
g2
(g6
S'\x10<\xa8\xf3\x86(\xcc?'
p40
tp41
Rp42
ag2
(g6
S'H\xff2\xc5\x02\x19\xcf?'
p43
tp44
Rp45
aa(dp46
S'ymin'
p47
F-6.146728992462158e-06
sg25
g26
(g27
(I0
tp48
g29
tp49
Rp50
(I1
(I3
tp51
g6
I00
S'k\xe49\x9ax\xb4\x83@\xe0\xd0~\xd8\xeb\xeb\x12@+9/z\xdd\xbd@@'
p52
tp53
bsaF1.8318970203399658
aF0.0001518726348876953
aF2.903978109359741
aS'16:21:59  04-07-16'
p54
a.