(lp0
(lp1
cnumpy.core.multiarray
scalar
p2
(cnumpy
dtype
p3
(S'f8'
p4
I0
I1
tp5
Rp6
(I3
S'<'
p7
NNNI-1
I-1
I0
tp8
bS'\xbc\xcb%\xa2\x0f\xda\xc6\xbf'
p9
tp10
Rp11
ag2
(g6
S'h\xf2\x07\x7f\x13W\xc3?'
p12
tp13
Rp14
aa(dp15
S's'
p16
F1e-09
sS'd'
p17
(lp18
Fnan
asa(dp19
g17
I2
sS'n'
p20
I22
sa(dp21
S'logEImin'
p22
F2.792344342342297
sS'DIRECTmessage'
p23
S'Number of function evaluations done is larger then maxf'
p24
sS'MAPHYP'
p25
cnumpy.core.multiarray
_reconstruct
p26
(cnumpy
ndarray
p27
(I0
tp28
S'b'
p29
tp30
Rp31
(I1
(I3
tp32
g6
I00
S'k\xe49\x9ax\xb4\x83@d\x0e\xde\xbc\xfa\xcd\r@\x1f\x1e\xea\xf7\x05\x05<@'
p33
tp34
bsag2
(g6
S'\x99\xdc\t\xc6\xeb\xb4n?'
p35
tp36
Rp37
aF1.0
a(dp38
a(lp39
Fnan
aFnan
aa(dp40
S'didnotrun'
p41
I01
saF0.8691620826721191
aF0.0001537799835205078
aF4.506111145019531e-05
aS'16:21:04  04-07-16'
p42
a.