(lp0
(lp1
cnumpy.core.multiarray
scalar
p2
(cnumpy
dtype
p3
(S'f8'
p4
I0
I1
tp5
Rp6
(I3
S'<'
p7
NNNI-1
I-1
I0
tp8
bS'4\xca\xe9\xcaL\xb7\xd8?'
p9
tp10
Rp11
ag2
(g6
S'\xca@n\x01\xc6\xd8\xe7?'
p12
tp13
Rp14
aa(dp15
S's'
p16
F1e-09
sS'd'
p17
(lp18
Fnan
asa(dp19
g17
I2
sS'n'
p20
I48
sa(dp21
S'logEImin'
p22
F6.873929452063264
sS'DIRECTmessage'
p23
S'Number of function evaluations done is larger then maxf'
p24
sS'MAPHYP'
p25
cnumpy.core.multiarray
_reconstruct
p26
(cnumpy
ndarray
p27
(I0
tp28
S'b'
p29
tp30
Rp31
(I1
(I3
tp32
g6
I00
S'%\x1a:\x92\x98\xb6\x83@\xd8:(\xb8\xcd\n\x12@\xc1\\j\x00\x9c8@@'
p33
tp34
bsag2
(g6
S'>~\x83\xa2\xbd\\M?'
p35
tp36
Rp37
aF1.0
a(dp38
a(lp39
g2
(g6
S'\x00\xcb\xee\x18\xe1\x17\xcc?'
p40
tp41
Rp42
ag2
(g6
S'\xe0\x1bAf\xae\x15\xcf?'
p43
tp44
Rp45
aa(dp46
S'ymin'
p47
F-0.00012879818677902222
sg25
g26
(g27
(I0
tp48
g29
tp49
Rp50
(I1
(I3
tp51
g6
I00
S'%\x1a:\x92\x98\xb6\x83@i:\x10\x19\xf3-\x12@\xe4\x8d\xfb\xf3\xdb=@@'
p52
tp53
bsaF1.5534610748291016
aF0.00015401840209960938
aF1.143474817276001
aS'16:21:41  04-07-16'
p54
a.