(lp0
(lp1
cnumpy.core.multiarray
scalar
p2
(cnumpy
dtype
p3
(S'f8'
p4
I0
I1
tp5
Rp6
(I3
S'<'
p7
NNNI-1
I-1
I0
tp8
bS'0&9\xb2\xf3%\xce?'
p9
tp10
Rp11
ag2
(g6
S't1\xbe\xd2\xee\xe9\xd1?'
p12
tp13
Rp14
aa(dp15
S's'
p16
F1e-09
sS'd'
p17
(lp18
Fnan
asa(dp19
g17
I2
sS'n'
p20
I77
sa(dp21
S'logEImin'
p22
F10.018418803378383
sS'DIRECTmessage'
p23
S'Number of function evaluations done is larger then maxf'
p24
sS'MAPHYP'
p25
cnumpy.core.multiarray
_reconstruct
p26
(cnumpy
ndarray
p27
(I0
tp28
S'b'
p29
tp30
Rp31
(I1
(I3
tp32
g6
I00
S'k\xe49\x9ax\xb4\x83@\x92\x91g~4\\\x14@L\xe8\xf1(UtA@'
p33
tp34
bsag2
(g6
S'\x8cZ\t\x98\x08\x1c\r?'
p35
tp36
Rp37
aF1.0
a(dp38
a(lp39
Fnan
aFnan
aa(dp40
S'didnotrun'
p41
I01
saF2.8121440410614014
aF0.00015091896057128906
aF4.696846008300781e-05
aS'16:22:58  04-07-16'
p42
a.