(lp0
(lp1
cnumpy.core.multiarray
scalar
p2
(cnumpy
dtype
p3
(S'f8'
p4
I0
I1
tp5
Rp6
(I3
S'<'
p7
NNNI-1
I-1
I0
tp8
bS'\x00\xcc\xb0\x94/\xb9\xcd\xbf'
p9
tp10
Rp11
ag2
(g6
S'\x1c\x0c\xf4\xbc\xc0\xff\xd0?'
p12
tp13
Rp14
aa(dp15
S's'
p16
F1e-09
sS'd'
p17
(lp18
Fnan
asa(dp19
g17
I2
sS'n'
p20
I33
sa(dp21
S'logEImin'
p22
F4.697167686213405
sS'DIRECTmessage'
p23
S'Number of function evaluations done is larger then maxf'
p24
sS'MAPHYP'
p25
cnumpy.core.multiarray
_reconstruct
p26
(cnumpy
ndarray
p27
(I0
tp28
S'b'
p29
tp30
Rp31
(I1
(I3
tp32
g6
I00
S'%\x1a:\x92\x98\xb6\x83@K=\x1c\xa9\x84\xd7\x0f@)\xa1\x1dB\xb7\x02>@'
p33
tp34
bsag2
(g6
S'n\xfc\xdd\xea\xb3>s?'
p35
tp36
Rp37
aF1.0
a(dp38
a(lp39
Fnan
aFnan
aa(dp40
S'didnotrun'
p41
I01
saF1.1522259712219238
aF0.00015807151794433594
aF5.698204040527344e-05
aS'16:21:16  04-07-16'
p42
a.