(lp0
(lp1
cnumpy.core.multiarray
scalar
p2
(cnumpy
dtype
p3
(S'f8'
p4
I0
I1
tp5
Rp6
(I3
S'<'
p7
NNNI-1
I-1
I0
tp8
bS'\xe8^\x1f\\gG\xda?'
p9
tp10
Rp11
ag2
(g6
S'\x90G\x16\xa5\xd9v\xea?'
p12
tp13
Rp14
aa(dp15
S's'
p16
F1e-09
sS'd'
p17
(lp18
Fnan
asa(dp19
g17
I2
sS'n'
p20
I27
sa(dp21
S'logEImin'
p22
F2.651135859737917
sS'DIRECTmessage'
p23
S'Number of function evaluations done is larger then maxf'
p24
sS'MAPHYP'
p25
cnumpy.core.multiarray
_reconstruct
p26
(cnumpy
ndarray
p27
(I0
tp28
S'b'
p29
tp30
Rp31
(I1
(I3
tp32
g6
I00
S'k\xe49\x9ax\xb4\x83@lj\x01\x7f\x1f;\x0f@s5\xa4\x19\x07\x85<@'
p33
tp34
bsag2
(g6
S'\x19\x89j\xb2q\xf5[?'
p35
tp36
Rp37
aF1.0
a(dp38
a(lp39
Fnan
aFnan
aa(dp40
S'didnotrun'
p41
I01
saF1.0709419250488281
aF0.00020194053649902344
aF6.604194641113281e-05
aS'16:21:08  04-07-16'
p42
a.