(lp0
(lp1
cnumpy.core.multiarray
scalar
p2
(cnumpy
dtype
p3
(S'f8'
p4
I0
I1
tp5
Rp6
(I3
S'<'
p7
NNNI-1
I-1
I0
tp8
bS'`\xb0r\x9a\x7f/\x94\xbf'
p9
tp10
Rp11
ag2
(g6
S'@p\x1e\xdbB\x8b\x86\xbf'
p12
tp13
Rp14
aa(dp15
S's'
p16
F1e-09
sS'd'
p17
(lp18
Fnan
asa(dp19
g17
I2
sS'n'
p20
I84
sa(dp21
S'logEImin'
p22
F11.68059560146338
sS'DIRECTmessage'
p23
S'Number of function evaluations done is larger then maxf'
p24
sS'MAPHYP'
p25
cnumpy.core.multiarray
_reconstruct
p26
(cnumpy
ndarray
p27
(I0
tp28
S'b'
p29
tp30
Rp31
(I1
(I3
tp32
g6
I00
S"\xf8\x05\x9d\xd0\n\x9b\x83@\xe73 d'\x91\x14@C\xcb\x81\xdc\x14\xf8A@"
p33
tp34
bsag2
(g6
S'\x87\x0c#\x0c$<Z?'
p35
tp36
Rp37
aF1.0
a(dp38
a(lp39
g2
(g6
S'\x00\xcb\xee\x18\xe1\x17\xcc?'
p40
tp41
Rp42
ag2
(g6
S'H\xff2\xc5\x02\x19\xcf?'
p43
tp44
Rp45
aa(dp46
S'ymin'
p47
F1.430511474609375e-06
sg25
g26
(g27
(I0
tp48
g29
tp49
Rp50
(I1
(I3
tp51
g6
I00
S'~*|\x80\xb4\x94\x83@\xbc/\xa3\x10\xe3\xf5\x14@$"\x84\x8c\xdd\xb2A@'
p52
tp53
bsaF3.77276611328125
aF0.0001900196075439453
aF2.476832866668701
aS'16:23:24  04-07-16'
p54
a.