(lp0
(lp1
cnumpy.core.multiarray
scalar
p2
(cnumpy
dtype
p3
(S'f8'
p4
I0
I1
tp5
Rp6
(I3
S'<'
p7
NNNI-1
I-1
I0
tp8
bS'\xc0\x05\xe0O\xc8\xe4\xc5?'
p9
tp10
Rp11
ag2
(g6
S'pQ\xcf\x14@\x0b\xc5?'
p12
tp13
Rp14
aa(dp15
S's'
p16
F1e-09
sS'd'
p17
(lp18
Fnan
asa(dp19
g17
I2
sS'n'
p20
I37
sa(dp21
S'logEImin'
p22
F5.356914657985736
sS'DIRECTmessage'
p23
S'Number of function evaluations done is larger then maxf'
p24
sS'MAPHYP'
p25
cnumpy.core.multiarray
_reconstruct
p26
(cnumpy
ndarray
p27
(I0
tp28
S'b'
p29
tp30
Rp31
(I1
(I3
tp32
g6
I00
S'=K\x83\x14\xbb\xa9\x82@K=\x1c\xa9\x84\xd7\x0f@X\x95\x19\xd5e\x19>@'
p33
tp34
bsag2
(g6
S',\x03\xf8\x02\xc0\xd6K?'
p35
tp36
Rp37
aF1.0
a(dp38
a(lp39
Fnan
aFnan
aa(dp40
S'didnotrun'
p41
I01
saF1.0355970859527588
aF0.00015401840209960938
aF4.601478576660156e-05
aS'16:21:22  04-07-16'
p42
a.