(lp0
(lp1
cnumpy.core.multiarray
scalar
p2
(cnumpy
dtype
p3
(S'f8'
p4
I0
I1
tp5
Rp6
(I3
S'<'
p7
NNNI-1
I-1
I0
tp8
bS'\xe0.\x8eDC\xc4\xca?'
p9
tp10
Rp11
ag2
(g6
S'\x18"\xc6?i\xd5\xcb?'
p12
tp13
Rp14
aa(dp15
S's'
p16
F1e-09
sS'd'
p17
(lp18
Fnan
asa(dp19
g17
I2
sS'n'
p20
I96
sa(dp21
S'logEImin'
p22
F12.436450681338142
sS'DIRECTmessage'
p23
S'Number of function evaluations done is larger then maxf'
p24
sS'MAPHYP'
p25
cnumpy.core.multiarray
_reconstruct
p26
(cnumpy
ndarray
p27
(I0
tp28
S'b'
p29
tp30
Rp31
(I1
(I3
tp32
g6
I00
S'\xf8\x05\x9d\xd0\n\x9b\x83@~\x078\x81C\n\x15@$"\x84\x8c\xdd\xb2A@'
p33
tp34
bsag2
(g6
S'O\x8f\xe8Q\x98S\xfd\xbe'
p35
tp36
Rp37
aF1.0
a(dp38
a(lp39
g2
(g6
S'\x00\xcb\xee\x18\xe1\x17\xcc?'
p40
tp41
Rp42
ag2
(g6
S'H\xff2\xc5\x02\x19\xcf?'
p43
tp44
Rp45
aa(dp46
S'ymin'
p47
F3.814697265625e-06
sg25
g26
(g27
(I0
tp48
g29
tp49
Rp50
(I1
(I3
tp51
g6
I00
S'\xf8\x05\x9d\xd0\n\x9b\x83@\xbc/\xa3\x10\xe3\xf5\x14@C\xcb\x81\xdc\x14\xf8A@'
p52
tp53
bsaF3.5753281116485596
aF0.00014901161193847656
aF3.242241859436035
aS'16:24:13  04-07-16'
p54
a.