(lp0
(lp1
cnumpy.core.multiarray
scalar
p2
(cnumpy
dtype
p3
(S'f8'
p4
I0
I1
tp5
Rp6
(I3
S'<'
p7
NNNI-1
I-1
I0
tp8
bS'@\xba{}p\x9d\xcd?'
p9
tp10
Rp11
ag2
(g6
S'\\\xc3\xd1\x00\x0b&\xd1?'
p12
tp13
Rp14
aa(dp15
S's'
p16
F1e-09
sS'd'
p17
(lp18
Fnan
asa(dp19
g17
I2
sS'n'
p20
I65
sa(dp21
S'logEImin'
p22
F8.708751340282152
sS'DIRECTmessage'
p23
S'Number of function evaluations done is larger then maxf'
p24
sS'MAPHYP'
p25
cnumpy.core.multiarray
_reconstruct
p26
(cnumpy
ndarray
p27
(I0
tp28
S'b'
p29
tp30
Rp31
(I1
(I3
tp32
g6
I00
S'k\xe49\x9ax\xb4\x83@r~\x92\xac\xb0\xa0\x13@uo/p[\xf4@@'
p33
tp34
bsag2
(g6
S'w"\xa0\xf4\xec\x1e\x06\xbf'
p35
tp36
Rp37
aF1.0
a(dp38
a(lp39
Fnan
aFnan
aa(dp40
S'didnotrun'
p41
I01
saF2.263881206512451
aF0.0001499652862548828
aF4.696846008300781e-05
aS'16:22:21  04-07-16'
p42
a.