(lp0
(lp1
cnumpy.core.multiarray
scalar
p2
(cnumpy
dtype
p3
(S'f8'
p4
I0
I1
tp5
Rp6
(I3
S'<'
p7
NNNI-1
I-1
I0
tp8
bS'\x8c/\xb3E{>\xd4\xbf'
p9
tp10
Rp11
ag2
(g6
S'\xa0\x87\xec\x12;V\xde?'
p12
tp13
Rp14
aa(dp15
S's'
p16
F1e-09
sS'd'
p17
(lp18
Fnan
asa(dp19
g17
I2
sS'n'
p20
I38
sa(dp21
S'logEImin'
p22
F5.4380232441426815
sS'DIRECTmessage'
p23
S'Number of function evaluations done is larger then maxf'
p24
sS'MAPHYP'
p25
cnumpy.core.multiarray
_reconstruct
p26
(cnumpy
ndarray
p27
(I0
tp28
S'b'
p29
tp30
Rp31
(I1
(I3
tp32
g6
I00
S'\xa8\x10\x06\xfaoj\x82@~\xda\xf3\x9f\xa9\xd8\x0f@\xaa\x06\xad\x8c%0>@'
p33
tp34
bsag2
(g6
S'\xb2\x8b\t\xbb(5\x81?'
p35
tp36
Rp37
aF1.0
a(dp38
a(lp39
Fnan
aFnan
aa(dp40
S'didnotrun'
p41
I01
saF1.1187350749969482
aF0.0001678466796875
aF6.103515625e-05
aS'16:21:23  04-07-16'
p42
a.