(lp0
(lp1
cnumpy.core.multiarray
scalar
p2
(cnumpy
dtype
p3
(S'f8'
p4
I0
I1
tp5
Rp6
(I3
S'<'
p7
NNNI-1
I-1
I0
tp8
bS'\xd4\xb5\x1dC\xaf&\xdd?'
p9
tp10
Rp11
ag2
(g6
S'0A\x0b|\xdc\xff\xef?'
p12
tp13
Rp14
aa(dp15
S's'
p16
F1e-09
sS'd'
p17
(lp18
Fnan
asa(dp19
g17
I2
sS'n'
p20
I26
sa(dp21
S'logEImin'
p22
F3.7043132554045957
sS'DIRECTmessage'
p23
S'Number of function evaluations done is larger then maxf'
p24
sS'MAPHYP'
p25
cnumpy.core.multiarray
_reconstruct
p26
(cnumpy
ndarray
p27
(I0
tp28
S'b'
p29
tp30
Rp31
(I1
(I3
tp32
g6
I00
S'k\xe49\x9ax\xb4\x83@\xaeNb\xe8\xf5w\x0f@\xc5M\xe8\xa9\x04\xaa<@'
p33
tp34
bsag2
(g6
S'C.3\xb9\xd3\xe0t?'
p35
tp36
Rp37
aF1.0
a(dp38
a(lp39
Fnan
aFnan
aa(dp40
S'didnotrun'
p41
I01
saF0.7076258659362793
aF0.0001552104949951172
aF5.793571472167969e-05
aS'16:21:07  04-07-16'
p42
a.