(lp0
(lp1
cnumpy.core.multiarray
scalar
p2
(cnumpy
dtype
p3
(S'f8'
p4
I0
I1
tp5
Rp6
(I3
S'<'
p7
NNNI-1
I-1
I0
tp8
bS'\x08\x1az\x9c\xcb\x13\xca\xbf'
p9
tp10
Rp11
ag2
(g6
S'\x00m\xe9\xfe\x02\x05\xcc?'
p12
tp13
Rp14
aa(dp15
S's'
p16
F1e-09
sS'd'
p17
(lp18
Fnan
asa(dp19
g17
I2
sS'n'
p20
I64
sa(dp21
S'logEImin'
p22
F8.734509082951439
sS'DIRECTmessage'
p23
S'Number of function evaluations done is larger then maxf'
p24
sS'MAPHYP'
p25
cnumpy.core.multiarray
_reconstruct
p26
(cnumpy
ndarray
p27
(I0
tp28
S'b'
p29
tp30
Rp31
(I1
(I3
tp32
g6
I00
S'k\xe49\x9ax\xb4\x83@\xf7.\xdbi\\\x87\x13@uo/p[\xf4@@'
p33
tp34
bsag2
(g6
S'\x99\x99\x01#\xf21r?'
p35
tp36
Rp37
aF1.0
a(dp38
a(lp39
g2
(g6
S' \xc7q\x1c\xc7q\xcc?'
p40
tp41
Rp42
ag2
(g6
S'\xa0N\xe2X\xda\xa4\xcf?'
p43
tp44
Rp45
aa(dp46
S'ymin'
p47
F-1.251325011253357e-05
sg25
g26
(g27
(I0
tp48
g29
tp49
Rp50
(I1
(I3
tp51
g6
I00
S'k\xe49\x9ax\xb4\x83@r~\x92\xac\xb0\xa0\x13@uo/p[\xf4@@'
p52
tp53
bsaF2.3312618732452393
aF0.00015592575073242188
aF1.8450770378112793
aS'16:22:19  04-07-16'
p54
a.