(lp0
(lp1
cnumpy.core.multiarray
scalar
p2
(cnumpy
dtype
p3
(S'f8'
p4
I0
I1
tp5
Rp6
(I3
S'<'
p7
NNNI-1
I-1
I0
tp8
bS'\xb0\x0c<\xdd\x9a\x1f\xc6?'
p9
tp10
Rp11
ag2
(g6
S'Pg>V\xd3\r\xc3?'
p12
tp13
Rp14
aa(dp15
S's'
p16
F1e-09
sS'd'
p17
(lp18
Fnan
asa(dp19
g17
I2
sS'n'
p20
I100
sa(dp21
S'logEImin'
p22
F12.71137403588424
sS'DIRECTmessage'
p23
S'Number of function evaluations done is larger then maxf'
p24
sS'MAPHYP'
p25
cnumpy.core.multiarray
_reconstruct
p26
(cnumpy
ndarray
p27
(I0
tp28
S'b'
p29
tp30
Rp31
(I1
(I3
tp32
g6
I00
S'\xf8\x05\x9d\xd0\n\x9b\x83@~\x078\x81C\n\x15@r\x9f\xd3T\xb5\x97B@'
p33
tp34
bsag2
(g6
S'\xc89\x8cO/\xf1\x03?'
p35
tp36
Rp37
aF1.0
a(dp38
a(lp39
g2
(g6
S'\xb8\xc9oo\xd85\xcc?'
p40
tp41
Rp42
ag2
(g6
S'@\xa8\x898\xf7@\xcf?'
p43
tp44
Rp45
aa(dp46
S'ymin'
p47
F1.9073486328125e-06
sg25
g26
(g27
(I0
tp48
g29
tp49
Rp50
(I1
(I3
tp51
g6
I00
S'\tu\xba\x85Kb\x83@y\xd5\xfe\xfa\xdbG\x15@d\xd5\xff\xa9\xe4aB@'
p52
tp53
bsaF3.621687889099121
aF0.00015807151794433594
aF3.787368059158325
aS'16:24:32  04-07-16'
p54
a.