(lp0
(lp1
cnumpy.core.multiarray
scalar
p2
(cnumpy
dtype
p3
(S'f8'
p4
I0
I1
tp5
Rp6
(I3
S'<'
p7
NNNI-1
I-1
I0
tp8
bS'\x92\\\xc8\r\xfc\xff\xef?'
p9
tp10
Rp11
ag2
(g6
S'\x92\\\xc8\r\xfc\xff\xef?'
p12
tp13
Rp14
aa(dp15
S's'
p16
F1e-09
sS'd'
p17
(lp18
Fnan
asa(dp19
g17
I2
sS'n'
p20
I12
sa(dp21
S'logEImin'
p22
F-1.5305137111156113
sS'DIRECTmessage'
p23
S'Number of function evaluations done is larger then maxf'
p24
sS'MAPHYP'
p25
cnumpy.core.multiarray
_reconstruct
p26
(cnumpy
ndarray
p27
(I0
tp28
S'b'
p29
tp30
Rp31
(I1
(I3
tp32
g6
I00
S'1\xafZO\x8fOh@=]\x8f\x16\xf5\x92\xfc?D\xf9\x17\xfa\xbb\xd4)@'
p33
tp34
bsag2
(g6
S'\xc9\xc9\x12u\x01\x02D@'
p35
tp36
Rp37
aF1.0
a(dp38
a(lp39
g2
(g6
S'V\x86mi2t\xde\xbf'
p40
tp41
Rp42
ag2
(g6
S'\x92\xc3!t\x95\xff\xef?'
p43
tp44
Rp45
aa(dp46
S'ymin'
p47
F-0.5334628185664769
sg25
g26
(g27
(I0
tp48
g29
tp49
Rp50
(I1
(I3
tp51
g6
I00
S"cX\x1e\xd3\x85'i@fI\xf0\xdaX\xe7\xfd?\xd07\x14b\xd7l*@"
p52
tp53
bsaF0.4949021339416504
aF0.0001518726348876953
aF0.5020301342010498
aS'16:20:53  04-07-16'
p54
a.