(lp0
(lp1
cnumpy.core.multiarray
scalar
p2
(cnumpy
dtype
p3
(S'f8'
p4
I0
I1
tp5
Rp6
(I3
S'<'
p7
NNNI-1
I-1
I0
tp8
bS'\x10\x02\xb9\x9e50\xb0?'
p9
tp10
Rp11
ag2
(g6
S'\x00g\xe8\nL\x1c\x99?'
p12
tp13
Rp14
aa(dp15
S's'
p16
F1e-09
sS'd'
p17
(lp18
Fnan
asa(dp19
g17
I2
sS'n'
p20
I44
sa(dp21
S'logEImin'
p22
F6.156320163499225
sS'DIRECTmessage'
p23
S'Number of function evaluations done is larger then maxf'
p24
sS'MAPHYP'
p25
cnumpy.core.multiarray
_reconstruct
p26
(cnumpy
ndarray
p27
(I0
tp28
S'b'
p29
tp30
Rp31
(I1
(I3
tp32
g6
I00
S',\xe2\xf2*S\x1d\x81@\x0b\x07\xe8I\x0b\xd9\x0f@\xd8X\x81d\xb9*>@'
p33
tp34
bsag2
(g6
S']\x84\xb7\xb0\x06\xee@?'
p35
tp36
Rp37
aF1.0
a(dp38
a(lp39
g2
(g6
S'\x00\xcb\xee\x18\xe1\x17\xcc?'
p40
tp41
Rp42
ag2
(g6
S'\xe0\x1bAf\xae\x15\xcf?'
p43
tp44
Rp45
aa(dp46
S'ymin'
p47
F-0.00013745948672294617
sg25
g26
(g27
(I0
tp48
g29
tp49
Rp50
(I1
(I3
tp51
g6
I00
S'\xaa\xe7\xfd\x1c\xbc\x01\x81@~\xda\xf3\x9f\xa9\xd8\x0f@<L\x86\xc1\x0bl>@'
p52
tp53
bsaF1.3663320541381836
aF0.00014901161193847656
aF1.107085943222046
aS'16:21:34  04-07-16'
p54
a.