(lp0
(lp1
cnumpy.core.multiarray
scalar
p2
(cnumpy
dtype
p3
(S'f8'
p4
I0
I1
tp5
Rp6
(I3
S'<'
p7
NNNI-1
I-1
I0
tp8
bS'\xc8f+\xdd\x91\xdb\xca?'
p9
tp10
Rp11
ag2
(g6
S'\x00\xb29db1\xc9?'
p12
tp13
Rp14
aa(dp15
S's'
p16
F1e-09
sS'd'
p17
(lp18
Fnan
asa(dp19
g17
I2
sS'n'
p20
I30
sa(dp21
S'logEImin'
p22
F4.285887581959497
sS'DIRECTmessage'
p23
S'Number of function evaluations done is larger then maxf'
p24
sS'MAPHYP'
p25
cnumpy.core.multiarray
_reconstruct
p26
(cnumpy
ndarray
p27
(I0
tp28
S'b'
p29
tp30
Rp31
(I1
(I3
tp32
g6
I00
S'%\x1a:\x92\x98\xb6\x83@K=\x1c\xa9\x84\xd7\x0f@qL\x0b\x14\xb6\x10=@'
p33
tp34
bsag2
(g6
S'\x19\x94m \xafOV?'
p35
tp36
Rp37
aF1.0
a(dp38
a(lp39
Fnan
aFnan
aa(dp40
S'didnotrun'
p41
I01
saF0.9721829891204834
aF0.00016808509826660156
aF6.794929504394531e-05
aS'16:21:12  04-07-16'
p42
a.