(lp0
(lp1
cnumpy.core.multiarray
scalar
p2
(cnumpy
dtype
p3
(S'f8'
p4
I0
I1
tp5
Rp6
(I3
S'<'
p7
NNNI-1
I-1
I0
tp8
bS'\x9c\xc7\x84\x95\x08\xa4\xd4?'
p9
tp10
Rp11
ag2
(g6
S'\x18\xd8\x08\xc8$|\xdd?'
p12
tp13
Rp14
aa(dp15
S's'
p16
F1e-09
sS'd'
p17
(lp18
Fnan
asa(dp19
g17
I2
sS'n'
p20
I19
sa(dp21
S'logEImin'
p22
F2.1435276449511833
sS'DIRECTmessage'
p23
S'Number of function evaluations done is larger then maxf'
p24
sS'MAPHYP'
p25
cnumpy.core.multiarray
_reconstruct
p26
(cnumpy
ndarray
p27
(I0
tp28
S'b'
p29
tp30
Rp31
(I1
(I3
tp32
g6
I00
S'k\xe49\x9ax\xb4\x83@\x90\x95\xe6?\xafQ\r@\xec\x1f~\xc3\xa6[9@'
p33
tp34
bsag2
(g6
S'\x94\xf6\x01$\x19\xc2\x82?'
p35
tp36
Rp37
aF1.0
a(dp38
a(lp39
Fnan
aFnan
aa(dp40
S'didnotrun'
p41
I01
saF1.9016308784484863
aF0.0001590251922607422
aF5.91278076171875e-05
aS'16:21:00  04-07-16'
p42
a.