(lp0
(lp1
cnumpy.core.multiarray
scalar
p2
(cnumpy
dtype
p3
(S'f8'
p4
I0
I1
tp5
Rp6
(I3
S'<'
p7
NNNI-1
I-1
I0
tp8
bS'\xa0\xfaI\x98!\xc3\xc7?'
p9
tp10
Rp11
ag2
(g6
S'\xd8xE\x08\x86[\xc6?'
p12
tp13
Rp14
aa(dp15
S's'
p16
F1e-09
sS'd'
p17
(lp18
Fnan
asa(dp19
g17
I2
sS'n'
p20
I99
sa(dp21
S'logEImin'
p22
F12.900168843232152
sS'DIRECTmessage'
p23
S'Number of function evaluations done is larger then maxf'
p24
sS'MAPHYP'
p25
cnumpy.core.multiarray
_reconstruct
p26
(cnumpy
ndarray
p27
(I0
tp28
S'b'
p29
tp30
Rp31
(I1
(I3
tp32
g6
I00
S'\xab\x0c\x17\xaf\x85O\x83@x\x93\x1a\xe3?3\x15@d\xd5\xff\xa9\xe4aB@'
p33
tp34
bsag2
(g6
S'\xf2\x07\xc9\xc4\xdc\x97\n?'
p35
tp36
Rp37
aF1.0
a(dp38
a(lp39
Fnan
aFnan
aa(dp40
S'didnotrun'
p41
I01
saF3.578768014907837
aF0.00015807151794433594
aF6.008148193359375e-05
aS'16:24:24  04-07-16'
p42
a.