(lp0
(lp1
cnumpy.core.multiarray
scalar
p2
(cnumpy
dtype
p3
(S'f8'
p4
I0
I1
tp5
Rp6
(I3
S'<'
p7
NNNI-1
I-1
I0
tp8
bS'8\xa0k/\xd6d\xcd?'
p9
tp10
Rp11
ag2
(g6
S'\xccD\xfd\x85\xd6\xc6\xd8?'
p12
tp13
Rp14
aa(dp15
S's'
p16
F1e-09
sS'd'
p17
(lp18
Fnan
asa(dp19
g17
I2
sS'n'
p20
I15
sa(dp21
S'logEImin'
p22
F0.4638452242481632
sS'DIRECTmessage'
p23
S'Number of function evaluations done is larger then maxf'
p24
sS'MAPHYP'
p25
cnumpy.core.multiarray
_reconstruct
p26
(cnumpy
ndarray
p27
(I0
tp28
S'b'
p29
tp30
Rp31
(I1
(I3
tp32
g6
I00
S"\x85c'X;ty@`A\xfd\x80\xaeB\x06@y\t;\x11!\x0c4@"
p33
tp34
bsag2
(g6
S'k\xd9\x95S\xa8\x85\xa3?'
p35
tp36
Rp37
aF1.0
a(dp38
a(lp39
Fnan
aFnan
aa(dp40
S'didnotrun'
p41
I01
saF1.1452629566192627
aF0.00015306472778320312
aF4.482269287109375e-05
aS'16:20:55  04-07-16'
p42
a.