(lp0
(lp1
cnumpy.core.multiarray
scalar
p2
(cnumpy
dtype
p3
(S'f8'
p4
I0
I1
tp5
Rp6
(I3
S'<'
p7
NNNI-1
I-1
I0
tp8
bS'\xa0\xf1\xd0\xf5\xe4\x94\xb8?'
p9
tp10
Rp11
ag2
(g6
S'0A\x0b|\xdc\xff\xef\xbf'
p12
tp13
Rp14
aa(dp15
S's'
p16
F1e-09
sS'd'
p17
(lp18
Fnan
asa(dp19
g17
I2
sS'n'
p20
I11
sa(dp21
S'logEImin'
p22
F-1.9934111032809472
sS'DIRECTmessage'
p23
S'Number of function evaluations done is larger then maxf'
p24
sS'MAPHYP'
p25
cnumpy.core.multiarray
_reconstruct
p26
(cnumpy
ndarray
p27
(I0
tp28
S'b'
p29
tp30
Rp31
(I1
(I3
tp32
g6
I00
S'\xfc\xff\xedx\x05\xc4\x81@\x08\x95?\xcb\n\xd5\x07@+\xc3\xae\xe4\xc8\xf5=@'
p33
tp34
bsag2
(g6
S'9\xb5\xb3\x07V\xe3\x05@'
p35
tp36
Rp37
aF1.0
a(dp38
a(lp39
Fnan
aFnan
aa(dp40
S'didnotrun'
p41
I01
saF0.6296520233154297
aF0.0001628398895263672
aF6.413459777832031e-05
aS'16:20:52  04-07-16'
p42
a.