(lp0
(lp1
cnumpy.core.multiarray
scalar
p2
(cnumpy
dtype
p3
(S'f8'
p4
I0
I1
tp5
Rp6
(I3
S'<'
p7
NNNI-1
I-1
I0
tp8
bS'P\x868\xc2\x99\x86\xd1?'
p9
tp10
Rp11
ag2
(g6
S'\xa0\xff3\xb6M\x03\xd6?'
p12
tp13
Rp14
aa(dp15
S's'
p16
F1e-09
sS'd'
p17
(lp18
Fnan
asa(dp19
g17
I2
sS'n'
p20
I24
sa(dp21
S'logEImin'
p22
F3.282559164511974
sS'DIRECTmessage'
p23
S'Number of function evaluations done is larger then maxf'
p24
sS'MAPHYP'
p25
cnumpy.core.multiarray
_reconstruct
p26
(cnumpy
ndarray
p27
(I0
tp28
S'b'
p29
tp30
Rp31
(I1
(I3
tp32
g6
I00
S'k\xe49\x9ax\xb4\x83@\xca\xdf\xe5\xc5;\x91\x0e@\xa4(\xa4\x8aK\xb3<@'
p33
tp34
bsag2
(g6
S'\xae\xe4\xbf\xfd\xfb}d?'
p35
tp36
Rp37
aF1.0
a(dp38
a(lp39
g2
(g6
S'\xf8(&nY\x8c\xd3?'
p40
tp41
Rp42
ag2
(g6
S'Lp\xec\x9f\xa8)\xdf?'
p43
tp44
Rp45
aa(dp46
S'ymin'
p47
F-0.0116690662689507
sg25
g26
(g27
(I0
tp48
g29
tp49
Rp50
(I1
(I3
tp51
g6
I00
S'k\xe49\x9ax\xb4\x83@lJ\xae\xf0\xb9\xf4\x0e@\xc7\x08\xe6N\xe2\xc5<@'
p52
tp53
bsaF0.7625150680541992
aF0.0001628398895263672
aF0.4862501621246338
aS'16:21:05  04-07-16'
p54
a.