(lp0
(lp1
cnumpy.core.multiarray
scalar
p2
(cnumpy
dtype
p3
(S'f8'
p4
I0
I1
tp5
Rp6
(I3
S'<'
p7
NNNI-1
I-1
I0
tp8
bS'\x08E\xed\x12\xd5\x97\xd5?'
p9
tp10
Rp11
ag2
(g6
S'\xba\x15Y)\xf4\xff\xef?'
p12
tp13
Rp14
aa(dp15
S's'
p16
F1e-09
sS'd'
p17
(lp18
Fnan
asa(dp19
g17
I2
sS'n'
p20
I13
sa(dp21
S'logEImin'
p22
F-0.3194034243353263
sS'DIRECTmessage'
p23
S'Number of function evaluations done is larger then maxf'
p24
sS'MAPHYP'
p25
cnumpy.core.multiarray
_reconstruct
p26
(cnumpy
ndarray
p27
(I0
tp28
S'b'
p29
tp30
Rp31
(I1
(I3
tp32
g6
I00
S"cX\x1e\xd3\x85'i@fI\xf0\xdaX\xe7\xfd?\xd07\x14b\xd7l*@"
p33
tp34
bsag2
(g6
S'\xa3\x0e\x80#=\xba\xdd?'
p35
tp36
Rp37
aF1.0
a(dp38
a(lp39
Fnan
aFnan
aa(dp40
S'didnotrun'
p41
I01
saF0.6587610244750977
aF0.00015306472778320312
aF4.38690185546875e-05
aS'16:20:53  04-07-16'
p42
a.