(lp0
(lp1
cnumpy.core.multiarray
scalar
p2
(cnumpy
dtype
p3
(S'f8'
p4
I0
I1
tp5
Rp6
(I3
S'<'
p7
NNNI-1
I-1
I0
tp8
bS'\x80U\nc\xbe \xba?'
p9
tp10
Rp11
ag2
(g6
S'\x80Z:\x8c\xcfg\xaf?'
p12
tp13
Rp14
aa(dp15
S's'
p16
F1e-09
sS'd'
p17
(lp18
Fnan
asa(dp19
g17
I2
sS'n'
p20
I72
sa(dp21
S'logEImin'
p22
F9.873453678035348
sS'DIRECTmessage'
p23
S'Number of function evaluations done is larger then maxf'
p24
sS'MAPHYP'
p25
cnumpy.core.multiarray
_reconstruct
p26
(cnumpy
ndarray
p27
(I0
tp28
S'b'
p29
tp30
Rp31
(I1
(I3
tp32
g6
I00
S'k\xe49\x9ax\xb4\x83@\x17qn\xd3O.\x14@\xdb\x08\xae\xb5mcA@'
p33
tp34
bsag2
(g6
S'\x1dh+m]\xaa<?'
p35
tp36
Rp37
aF1.0
a(dp38
a(lp39
g2
(g6
S'\x98\x1b\x1dV\xc1\x85\xcc?'
p40
tp41
Rp42
ag2
(g6
S'\xc00U\x0e&\xc6\xcf?'
p43
tp44
Rp45
aa(dp46
S'ymin'
p47
F-2.6345252990722656e-05
sg25
g26
(g27
(I0
tp48
g29
tp49
Rp50
(I1
(I3
tp51
g6
I00
S'k\xe49\x9ax\xb4\x83@\x17qn\xd3O.\x14@\xdb\x08\xae\xb5mcA@'
p52
tp53
bsaF2.703476905822754
aF0.00019097328186035156
aF2.0485851764678955
aS'16:22:42  04-07-16'
p54
a.