(lp0
(lp1
cnumpy.core.multiarray
scalar
p2
(cnumpy
dtype
p3
(S'f8'
p4
I0
I1
tp5
Rp6
(I3
S'<'
p7
NNNI-1
I-1
I0
tp8
bS'\xfc\xdbP\x1d\xa64\xd0?'
p9
tp10
Rp11
ag2
(g6
S'\xcc\xf3\x98\xb0\x12\x81\xd4?'
p12
tp13
Rp14
aa(dp15
S's'
p16
F1e-09
sS'd'
p17
(lp18
Fnan
asa(dp19
g17
I2
sS'n'
p20
I70
sa(dp21
S'logEImin'
p22
F9.68233970210118
sS'DIRECTmessage'
p23
S'Number of function evaluations done is larger then maxf'
p24
sS'MAPHYP'
p25
cnumpy.core.multiarray
_reconstruct
p26
(cnumpy
ndarray
p27
(I0
tp28
S'b'
p29
tp30
Rp31
(I1
(I3
tp32
g6
I00
S'k\xe49\x9ax\xb4\x83@\x9bF\x94d[\xfa\x13@\x90qm\xa4eGA@'
p33
tp34
bsag2
(g6
S'\x96\x87\x0b\xe8X>\x15?'
p35
tp36
Rp37
aF1.0
a(dp38
a(lp39
Fnan
aFnan
aa(dp40
S'didnotrun'
p41
I01
saF2.434764862060547
aF0.00015497207641601562
aF5.817413330078125e-05
aS'16:22:35  04-07-16'
p42
a.