(lp0
(lp1
cnumpy.core.multiarray
scalar
p2
(cnumpy
dtype
p3
(S'f8'
p4
I0
I1
tp5
Rp6
(I3
S'<'
p7
NNNI-1
I-1
I0
tp8
bS'\xd0\xe6\x90\x89\xc5d\xc4?'
p9
tp10
Rp11
ag2
(g6
S'\xd0\xce\x03\x0f\x1e@\xc0?'
p12
tp13
Rp14
aa(dp15
S's'
p16
F1e-09
sS'd'
p17
(lp18
Fnan
asa(dp19
g17
I2
sS'n'
p20
I79
sa(dp21
S'logEImin'
p22
F10.498302982334483
sS'DIRECTmessage'
p23
S'Number of function evaluations done is larger then maxf'
p24
sS'MAPHYP'
p25
cnumpy.core.multiarray
_reconstruct
p26
(cnumpy
ndarray
p27
(I0
tp28
S'b'
p29
tp30
Rp31
(I1
(I3
tp32
g6
I00
S"\x08\xc7\xed\x11\x1a\xae\x83@\x98N\x81bdi\x14@\xcb\x8d\x03'\xd8\xf9@@"
p33
tp34
bsag2
(g6
S'\x82ID\xcc\xb2J\xec>'
p35
tp36
Rp37
aF1.0
a(dp38
a(lp39
Fnan
aFnan
aa(dp40
S'didnotrun'
p41
I01
saF2.8191399574279785
aF0.00015306472778320312
aF5.793571472167969e-05
aS'16:23:04  04-07-16'
p42
a.