(lp0
(lp1
cnumpy.core.multiarray
scalar
p2
(cnumpy
dtype
p3
(S'f8'
p4
I0
I1
tp5
Rp6
(I3
S'<'
p7
NNNI-1
I-1
I0
tp8
bS'\x88J\xb4\n\xa0\xb7\xe3?'
p9
tp10
Rp11
ag2
(g6
S'\xdc$/7GM\xe7\xbf'
p12
tp13
Rp14
aa(dp15
S's'
p16
F1e-09
sS'd'
p17
(lp18
Fnan
asa(dp19
g17
I2
sS'n'
p20
I7
sa(dp21
ag2
(g6
S'*\xb3\xcf\x18\x14@1@'
p22
tp23
Rp24
aF1.0
a(dp25
a(lp26
Fnan
aFnan
aa(dp27
S'didnotrun'
p28
I01
saF4.601478576660156e-05
aF8.893013000488281e-05
aF4.00543212890625e-05
aS'16:20:51  04-07-16'
p29
a.