(lp0
(lp1
cnumpy.core.multiarray
scalar
p2
(cnumpy
dtype
p3
(S'f8'
p4
I0
I1
tp5
Rp6
(I3
S'<'
p7
NNNI-1
I-1
I0
tp8
bS'\xc8"hL\xe8b\xd2?'
p9
tp10
Rp11
ag2
(g6
S'(\xc5\xff\xac w\xda?'
p12
tp13
Rp14
aa(dp15
S's'
p16
F1e-09
sS'd'
p17
(lp18
Fnan
asa(dp19
g17
I2
sS'n'
p20
I52
sa(dp21
S'logEImin'
p22
F7.248111854692333
sS'DIRECTmessage'
p23
S'Number of function evaluations done is larger then maxf'
p24
sS'MAPHYP'
p25
cnumpy.core.multiarray
_reconstruct
p26
(cnumpy
ndarray
p27
(I0
tp28
S'b'
p29
tp30
Rp31
(I1
(I3
tp32
g6
I00
S'k\xe49\x9ax\xb4\x83@\xc1 \xd0\xf8\xfd\x84\x12@-,R\xc5\xecR@@'
p33
tp34
bsag2
(g6
S'\xfc\x8fS\x93\xa7p*?'
p35
tp36
Rp37
aF1.0
a(dp38
a(lp39
g2
(g6
S'\xd8\x91\xd2\xd6\x89\x1e\xcc?'
p40
tp41
Rp42
ag2
(g6
S'H\xff2\xc5\x02\x19\xcf?'
p43
tp44
Rp45
aa(dp46
S'ymin'
p47
F-0.00022239238023757935
sg25
g26
(g27
(I0
tp48
g29
tp49
Rp50
(I1
(I3
tp51
g6
I00
S'k\xe49\x9ax\xb4\x83@P\xa3\xc4\xeb\xfe\x96\x12@\n\xbfE;hm@@'
p52
tp53
bsaF1.7754440307617188
aF0.0001499652862548828
aF1.2313358783721924
aS'16:21:49  04-07-16'
p54
a.