(lp0
(lp1
cnumpy.core.multiarray
scalar
p2
(cnumpy
dtype
p3
(S'f8'
p4
I0
I1
tp5
Rp6
(I3
S'<'
p7
NNNI-1
I-1
I0
tp8
bS'\xc8\x9es\x1b\xa4\xeb\xd7?'
p9
tp10
Rp11
ag2
(g6
S'\x9c\xf8\x9b\x85;\x94\xe6?'
p12
tp13
Rp14
aa(dp15
S's'
p16
F1e-09
sS'd'
p17
(lp18
Fnan
asa(dp19
g17
I2
sS'n'
p20
I91
sa(dp21
S'logEImin'
p22
F12.576524454652608
sS'DIRECTmessage'
p23
S'Number of function evaluations done is larger then maxf'
p24
sS'MAPHYP'
p25
cnumpy.core.multiarray
_reconstruct
p26
(cnumpy
ndarray
p27
(I0
tp28
S'b'
p29
tp30
Rp31
(I1
(I3
tp32
g6
I00
S'\x08\xc7\xed\x11\x1a\xae\x83@~\x078\x81C\n\x15@Z\\\xb0$T\xbeA@'
p33
tp34
bsag2
(g6
S'\x91BL\xf1\xa2\xf2K?'
p35
tp36
Rp37
aF1.0
a(dp38
a(lp39
Fnan
aFnan
aa(dp40
S'didnotrun'
p41
I01
saF3.241874933242798
aF0.00015616416931152344
aF5.602836608886719e-05
aS'16:23:49  04-07-16'
p42
a.