(lp0
(lp1
cnumpy.core.multiarray
scalar
p2
(cnumpy
dtype
p3
(S'f8'
p4
I0
I1
tp5
Rp6
(I3
S'<'
p7
NNNI-1
I-1
I0
tp8
bS'P\xa8f\x19U\x9b\xd3?'
p9
tp10
Rp11
ag2
(g6
S'\x10\x8egbf\xc0\xdd?'
p12
tp13
Rp14
aa(dp15
S's'
p16
F1e-09
sS'd'
p17
(lp18
Fnan
asa(dp19
g17
I2
sS'n'
p20
I94
sa(dp21
S'logEImin'
p22
F12.881003377055404
sS'DIRECTmessage'
p23
S'Number of function evaluations done is larger then maxf'
p24
sS'MAPHYP'
p25
cnumpy.core.multiarray
_reconstruct
p26
(cnumpy
ndarray
p27
(I0
tp28
S'b'
p29
tp30
Rp31
(I1
(I3
tp32
g6
I00
S'\xf8\x05\x9d\xd0\n\x9b\x83@~\x078\x81C\n\x15@}Q\xf6\x9fW\xd5A@'
p33
tp34
bsag2
(g6
S'T2\x1f\xcc\xcc\xd25?'
p35
tp36
Rp37
aF1.0
a(dp38
a(lp39
Fnan
aFnan
aa(dp40
S'didnotrun'
p41
I01
saF3.5357019901275635
aF0.00015401840209960938
aF4.482269287109375e-05
aS'16:24:02  04-07-16'
p42
a.