(lp0
(lp1
cnumpy.core.multiarray
scalar
p2
(cnumpy
dtype
p3
(S'f8'
p4
I0
I1
tp5
Rp6
(I3
S'<'
p7
NNNI-1
I-1
I0
tp8
bS'\xe4\x10\xefq\x98\x9d\xd9?'
p9
tp10
Rp11
ag2
(g6
S'\xa6\xcePI\t\xd2\xe9?'
p12
tp13
Rp14
aa(dp15
S's'
p16
F1e-09
sS'd'
p17
(lp18
Fnan
asa(dp19
g17
I2
sS'n'
p20
I88
sa(dp21
S'logEImin'
p22
F11.811604769376741
sS'DIRECTmessage'
p23
S'Number of function evaluations done is larger then maxf'
p24
sS'MAPHYP'
p25
cnumpy.core.multiarray
_reconstruct
p26
(cnumpy
ndarray
p27
(I0
tp28
S'b'
p29
tp30
Rp31
(I1
(I3
tp32
g6
I00
S"\xc2\xf3\xb6\x04\x0e\x88\x83@\xe73 d'\x91\x14@\xb9R\t\xd3\x8c\tB@"
p33
tp34
bsag2
(g6
S'wT#w\x05\xa2Q?'
p35
tp36
Rp37
aF1.0
a(dp38
a(lp39
g2
(g6
S'\xb8\xc9oo\xd85\xcc?'
p40
tp41
Rp42
ag2
(g6
S'H\xff2\xc5\x02\x19\xcf?'
p43
tp44
Rp45
aa(dp46
S'ymin'
p47
F-6.67572021484375e-06
sg25
g26
(g27
(I0
tp48
g29
tp49
Rp50
(I1
(I3
tp51
g6
I00
S'\x08\xc7\xed\x11\x1a\xae\x83@\xdf\x9a\xed\x86\x81\x8a\x14@\xd4\xae.\xae\xd7gB@'
p52
tp53
bsaF3.139953136444092
aF0.0001609325408935547
aF2.6690011024475098
aS'16:23:40  04-07-16'
p54
a.