(lp0
(lp1
cnumpy.core.multiarray
scalar
p2
(cnumpy
dtype
p3
(S'f8'
p4
I0
I1
tp5
Rp6
(I3
S'<'
p7
NNNI-1
I-1
I0
tp8
bS'T\xf6\x82\xaf\xc9\xa6\xdd\xbf'
p9
tp10
Rp11
ag2
(g6
S'F\xaa\x0e\xdb\xf5T\xe4?'
p12
tp13
Rp14
aa(dp15
S's'
p16
F1e-09
sS'd'
p17
(lp18
Fnan
asa(dp19
g17
I2
sS'n'
p20
I1
sa(dp21
ag2
(g6
S'34\xc9"\x1cb\xdf?'
p22
tp23
Rp24
aF1.0
a(dp25
a(lp26
Fnan
aFnan
aa(dp27
S'didnotrun'
p28
I01
saF8.487701416015625e-05
aF0.0001671314239501953
aF6.29425048828125e-05
aS'16:20:51  04-07-16'
p29
a.