(lp0
(lp1
cnumpy.core.multiarray
scalar
p2
(cnumpy
dtype
p3
(S'f8'
p4
I0
I1
tp5
Rp6
(I3
S'<'
p7
NNNI-1
I-1
I0
tp8
bS'\xdc\xa0\x900\x0e\xdf\xd6\xbf'
p9
tp10
Rp11
ag2
(g6
S'\x9e\xd4\x8c\xbcU\xc0\xe4?'
p12
tp13
Rp14
aa(dp15
S's'
p16
F1e-09
sS'd'
p17
(lp18
Fnan
asa(dp19
g17
I2
sS'n'
p20
I25
sa(dp21
S'logEImin'
p22
F3.329809975655952
sS'DIRECTmessage'
p23
S'Number of function evaluations done is larger then maxf'
p24
sS'MAPHYP'
p25
cnumpy.core.multiarray
_reconstruct
p26
(cnumpy
ndarray
p27
(I0
tp28
S'b'
p29
tp30
Rp31
(I1
(I3
tp32
g6
I00
S'k\xe49\x9ax\xb4\x83@lJ\xae\xf0\xb9\xf4\x0e@\xc7\x08\xe6N\xe2\xc5<@'
p33
tp34
bsag2
(g6
S'\x86\x05\x12+\x07D\x80?'
p35
tp36
Rp37
aF1.0
a(dp38
a(lp39
Fnan
aFnan
aa(dp40
S'didnotrun'
p41
I01
saF0.8732378482818604
aF0.0001571178436279297
aF6.198883056640625e-05
aS'16:21:06  04-07-16'
p42
a.