(lp0
(lp1
cnumpy.core.multiarray
scalar
p2
(cnumpy
dtype
p3
(S'f8'
p4
I0
I1
tp5
Rp6
(I3
S'<'
p7
NNNI-1
I-1
I0
tp8
bS'\x18v\rG\x03,\xd8?'
p9
tp10
Rp11
ag2
(g6
S'\xd2\xf4Z,a"\xe6?'
p12
tp13
Rp14
aa(dp15
S's'
p16
F1e-09
sS'd'
p17
(lp18
Fnan
asa(dp19
g17
I2
sS'n'
p20
I68
sa(dp21
S'logEImin'
p22
F9.30347824912241
sS'DIRECTmessage'
p23
S'Number of function evaluations done is larger then maxf'
p24
sS'MAPHYP'
p25
cnumpy.core.multiarray
_reconstruct
p26
(cnumpy
ndarray
p27
(I0
tp28
S'b'
p29
tp30
Rp31
(I1
(I3
tp32
g6
I00
S"k\xe49\x9ax\xb4\x83@u nI\x02\xe7\x13@\xcb\x8d\x03'\xd8\xf9@@"
p33
tp34
bsag2
(g6
S'\xe7\xff"q\x0f\x8a`?'
p35
tp36
Rp37
aF1.0
a(dp38
a(lp39
g2
(g6
S'`qG9\xc4{\xcc?'
p40
tp41
Rp42
ag2
(g6
S'\x082\xd4\xb7.\xa8\xcf?'
p43
tp44
Rp45
aa(dp46
S'ymin'
p47
F-2.292543649673462e-05
sg25
g26
(g27
(I0
tp48
g29
tp49
Rp50
(I1
(I3
tp51
g6
I00
S'k\xe49\x9ax\xb4\x83@\xe2\xcaiE\xe6\xf3\x13@fc\x95\xc3\x8a+A@'
p52
tp53
bsaF2.2705299854278564
aF0.00015282630920410156
aF1.9178681373596191
aS'16:22:30  04-07-16'
p54
a.