(lp0
(lp1
cnumpy.core.multiarray
scalar
p2
(cnumpy
dtype
p3
(S'f8'
p4
I0
I1
tp5
Rp6
(I3
S'<'
p7
NNNI-1
I-1
I0
tp8
bS'<\xd4V$r\xe8\xd0?'
p9
tp10
Rp11
ag2
(g6
S'\xd4\x93\x88\t\xc1\xc2\xd6?'
p12
tp13
Rp14
aa(dp15
S's'
p16
F1e-09
sS'd'
p17
(lp18
Fnan
asa(dp19
g17
I2
sS'n'
p20
I51
sa(dp21
S'logEImin'
p22
F7.17640836265125
sS'DIRECTmessage'
p23
S'Number of function evaluations done is larger then maxf'
p24
sS'MAPHYP'
p25
cnumpy.core.multiarray
_reconstruct
p26
(cnumpy
ndarray
p27
(I0
tp28
S'b'
p29
tp30
Rp31
(I1
(I3
tp32
g6
I00
S'%\x1a:\x92\x98\xb6\x83@1\xb7a\xd1\x17m\x12@g\x01\xfa\xcb[:@@'
p33
tp34
bsag2
(g6
S'\xf5)\xd6\xe9\x88\xd0-?'
p35
tp36
Rp37
aF1.0
a(dp38
a(lp39
Fnan
aFnan
aa(dp40
S'didnotrun'
p41
I01
saF1.4929399490356445
aF0.00015497207641601562
aF5.602836608886719e-05
aS'16:21:46  04-07-16'
p42
a.