(lp0
(lp1
cnumpy.core.multiarray
scalar
p2
(cnumpy
dtype
p3
(S'f8'
p4
I0
I1
tp5
Rp6
(I3
S'<'
p7
NNNI-1
I-1
I0
tp8
bS'\x00\x86\xd0\xee\x1bM\x96?'
p9
tp10
Rp11
ag2
(g6
S'\x00Pt{$\xb9\x87?'
p12
tp13
Rp14
aa(dp15
S's'
p16
F1e-09
sS'd'
p17
(lp18
Fnan
asa(dp19
g17
I2
sS'n'
p20
I41
sa(dp21
S'logEImin'
p22
F5.779906524849185
sS'DIRECTmessage'
p23
S'Number of function evaluations done is larger then maxf'
p24
sS'MAPHYP'
p25
cnumpy.core.multiarray
_reconstruct
p26
(cnumpy
ndarray
p27
(I0
tp28
S'b'
p29
tp30
Rp31
(I1
(I3
tp32
g6
I00
S'\x17;\x17\xc3\x8a\xcc\x81@\x0b\x07\xe8I\x0b\xd9\x0f@N\xa2d\xb1gL>@'
p33
tp34
bsag2
(g6
S'W\x86\xf0\x81\xc8\x02Q?'
p35
tp36
Rp37
aF1.0
a(dp38
a(lp39
Fnan
aFnan
aa(dp40
S'didnotrun'
p41
I01
saF2.108474016189575
aF0.00015497207641601562
aF4.601478576660156e-05
aS'16:21:29  04-07-16'
p42
a.