(lp0
(lp1
cnumpy.core.multiarray
scalar
p2
(cnumpy
dtype
p3
(S'f8'
p4
I0
I1
tp5
Rp6
(I3
S'<'
p7
NNNI-1
I-1
I0
tp8
bS'0\xc0\x15\x8f\xf46\xcc?'
p9
tp10
Rp11
ag2
(g6
S'P\x91X{\x15\x9d\xcf?'
p12
tp13
Rp14
aa(dp15
S's'
p16
F1e-09
sS'd'
p17
(lp18
Fnan
asa(dp19
g17
I2
sS'n'
p20
I54
sa(dp21
S'logEImin'
p22
F7.372453697160071
sS'DIRECTmessage'
p23
S'Number of function evaluations done is larger then maxf'
p24
sS'MAPHYP'
p25
cnumpy.core.multiarray
_reconstruct
p26
(cnumpy
ndarray
p27
(I0
tp28
S'b'
p29
tp30
Rp31
(I1
(I3
tp32
g6
I00
S'k\xe49\x9ax\xb4\x83@\xc3\xa5ql\x1b\xaf\x12@\x1ca\xaf\x07\x0cx@@'
p33
tp34
bsag2
(g6
S'K\xfaxY5\xff\xf9>'
p35
tp36
Rp37
aF1.0
a(dp38
a(lp39
Fnan
aFnan
aa(dp40
S'didnotrun'
p41
I01
saF1.7754850387573242
aF0.00015807151794433594
aF4.696846008300781e-05
aS'16:21:52  04-07-16'
p42
a.