(lp0
(lp1
cnumpy.core.multiarray
scalar
p2
(cnumpy
dtype
p3
(S'f8'
p4
I0
I1
tp5
Rp6
(I3
S'<'
p7
NNNI-1
I-1
I0
tp8
bS'8\xd3\xfb\x8aV\x96\xb3\xbf'
p9
tp10
Rp11
ag2
(g6
S'8}\xad\x97f\x10\xb1\xbf'
p12
tp13
Rp14
aa(dp15
S's'
p16
F1e-09
sS'd'
p17
(lp18
Fnan
asa(dp19
g17
I2
sS'n'
p20
I17
sa(dp21
S'logEImin'
p22
F1.3085847575518137
sS'DIRECTmessage'
p23
S'Number of function evaluations done is larger then maxf'
p24
sS'MAPHYP'
p25
cnumpy.core.multiarray
_reconstruct
p26
(cnumpy
ndarray
p27
(I0
tp28
S'b'
p29
tp30
Rp31
(I1
(I3
tp32
g6
I00
S'\x08\xc7\xed\x11\x1a\xae\x83@\xd4=\x9d7I(\x0c@\t\xbcI\xd4\xc8\xe18@'
p33
tp34
bsag2
(g6
S'\xff\xc2ll\xfc\x7f\x99?'
p35
tp36
Rp37
aF1.0
a(dp38
a(lp39
Fnan
aFnan
aa(dp40
S'didnotrun'
p41
I01
saF0.6410470008850098
aF0.00015401840209960938
aF4.696846008300781e-05
aS'16:20:57  04-07-16'
p42
a.