(lp0
(lp1
cnumpy.core.multiarray
scalar
p2
(cnumpy
dtype
p3
(S'f8'
p4
I0
I1
tp5
Rp6
(I3
S'<'
p7
NNNI-1
I-1
I0
tp8
bS'\xe0\xb5O~I\x88\xa4\xbf'
p9
tp10
Rp11
ag2
(g6
S'\x00\xe37\x9d\x98Ng\xbf'
p12
tp13
Rp14
aa(dp15
S's'
p16
F1e-09
sS'd'
p17
(lp18
Fnan
asa(dp19
g17
I2
sS'n'
p20
I50
sa(dp21
S'logEImin'
p22
F7.105272142896827
sS'DIRECTmessage'
p23
S'Number of function evaluations done is larger then maxf'
p24
sS'MAPHYP'
p25
cnumpy.core.multiarray
_reconstruct
p26
(cnumpy
ndarray
p27
(I0
tp28
S'b'
p29
tp30
Rp31
(I1
(I3
tp32
g6
I00
S'%\x1a:\x92\x98\xb6\x83@-\x93\xc3\xf0\\Q\x12@\xc1\\j\x00\x9c8@@'
p33
tp34
bsag2
(g6
S'\xf2\x164\xab3\xfb[?'
p35
tp36
Rp37
aF1.0
a(dp38
a(lp39
Fnan
aFnan
aa(dp40
S'didnotrun'
p41
I01
saF1.4569718837738037
aF0.0002071857452392578
aF6.985664367675781e-05
aS'16:21:44  04-07-16'
p42
a.