(lp0
(lp1
cnumpy.core.multiarray
scalar
p2
(cnumpy
dtype
p3
(S'f8'
p4
I0
I1
tp5
Rp6
(I3
S'<'
p7
NNNI-1
I-1
I0
tp8
bS'\xd8\xcek\x15\xfb\xbd\xcb?'
p9
tp10
Rp11
ag2
(g6
S' %D\xd7`\xf4\xcd?'
p12
tp13
Rp14
aa(dp15
S's'
p16
F1e-09
sS'd'
p17
(lp18
Fnan
asa(dp19
g17
I2
sS'n'
p20
I85
sa(dp21
S'logEImin'
p22
F11.579748521774151
sS'DIRECTmessage'
p23
S'Number of function evaluations done is larger then maxf'
p24
sS'MAPHYP'
p25
cnumpy.core.multiarray
_reconstruct
p26
(cnumpy
ndarray
p27
(I0
tp28
S'b'
p29
tp30
Rp31
(I1
(I3
tp32
g6
I00
S'~*|\x80\xb4\x94\x83@\xbc/\xa3\x10\xe3\xf5\x14@$"\x84\x8c\xdd\xb2A@'
p33
tp34
bsag2
(g6
S'~\xf8b\x90\xea\xc9\x07\xbf'
p35
tp36
Rp37
aF1.0
a(dp38
a(lp39
Fnan
aFnan
aa(dp40
S'didnotrun'
p41
I01
saF3.179626941680908
aF0.0001499652862548828
aF4.8160552978515625e-05
aS'16:23:27  04-07-16'
p42
a.