(lp0
(lp1
cnumpy.core.multiarray
scalar
p2
(cnumpy
dtype
p3
(S'f8'
p4
I0
I1
tp5
Rp6
(I3
S'<'
p7
NNNI-1
I-1
I0
tp8
bS'x\xa9\xa1\xff\xcc\xd3\xda?'
p9
tp10
Rp11
ag2
(g6
S'nz\xc9\x1f\xfcM\xec?'
p12
tp13
Rp14
aa(dp15
S's'
p16
F1e-09
sS'd'
p17
(lp18
Fnan
asa(dp19
g17
I2
sS'n'
p20
I83
sa(dp21
S'logEImin'
p22
F11.236060660461224
sS'DIRECTmessage'
p23
S'Number of function evaluations done is larger then maxf'
p24
sS'MAPHYP'
p25
cnumpy.core.multiarray
_reconstruct
p26
(cnumpy
ndarray
p27
(I0
tp28
S'b'
p29
tp30
Rp31
(I1
(I3
tp32
g6
I00
S'k\xe49\x9ax\xb4\x83@\x86\xf7\xccc\xd4\xab\x14@E\x7f\x97\x89\xb9\xa1A@'
p33
tp34
bsag2
(g6
S'oP(hG\x85U?'
p35
tp36
Rp37
aF1.0
a(dp38
a(lp39
Fnan
aFnan
aa(dp40
S'didnotrun'
p41
I01
saF2.743196964263916
aF0.00015497207641601562
aF5.817413330078125e-05
aS'16:23:17  04-07-16'
p42
a.