(lp0
(lp1
cnumpy.core.multiarray
scalar
p2
(cnumpy
dtype
p3
(S'f8'
p4
I0
I1
tp5
Rp6
(I3
S'<'
p7
NNNI-1
I-1
I0
tp8
bS'`\x82\xde\xe4!\x86\xbd?'
p9
tp10
Rp11
ag2
(g6
S' 9\xb8\xcb"6\xb1?'
p12
tp13
Rp14
aa(dp15
S's'
p16
F1e-09
sS'd'
p17
(lp18
Fnan
asa(dp19
g17
I2
sS'n'
p20
I60
sa(dp21
S'logEImin'
p22
F8.338193360170953
sS'DIRECTmessage'
p23
S'Number of function evaluations done is larger then maxf'
p24
sS'MAPHYP'
p25
cnumpy.core.multiarray
_reconstruct
p26
(cnumpy
ndarray
p27
(I0
tp28
S'b'
p29
tp30
Rp31
(I1
(I3
tp32
g6
I00
S'k\xe49\x9ax\xb4\x83@\xa6\xf1\x0cu\xeb5\x13@y\x108c\xb5\xc8@@'
p33
tp34
bsag2
(g6
S'\xd1\xf6\xbe\x0c\xe3\xea$?'
p35
tp36
Rp37
aF1.0
a(dp38
a(lp39
g2
(g6
S'\xb0\x0c<\xdd\x9a\x1f\xc6?'
p40
tp41
Rp42
ag2
(g6
S'Pg>V\xd3\r\xc3?'
p43
tp44
Rp45
aa(dp46
S'ymin'
p47
F-1.9606202840805054e-05
sg25
g26
(g27
(I0
tp48
g29
tp49
Rp50
(I1
(I3
tp51
g6
I00
S"k\xe49\x9ax\xb4\x83@\xfd'L\x16\xd6N\x13@y\x108c\xb5\xc8@@"
p52
tp53
bsaF1.9139940738677979
aF0.0001518726348876953
aF1.561535120010376
aS'16:22:08  04-07-16'
p54
a.