(lp0
(lp1
cnumpy.core.multiarray
scalar
p2
(cnumpy
dtype
p3
(S'f8'
p4
I0
I1
tp5
Rp6
(I3
S'<'
p7
NNNI-1
I-1
I0
tp8
bS't(\x13\xf5\x17Z\xdb\xbf'
p9
tp10
Rp11
ag2
(g6
S'\x8a\x80~\xfdq\xd3\xec?'
p12
tp13
Rp14
aa(dp15
S's'
p16
F1e-09
sS'd'
p17
(lp18
Fnan
asa(dp19
g17
I2
sS'n'
p20
I80
sa(dp21
S'logEImin'
p22
F10.785504090924187
sS'DIRECTmessage'
p23
S'Number of function evaluations done is larger then maxf'
p24
sS'MAPHYP'
p25
cnumpy.core.multiarray
_reconstruct
p26
(cnumpy
ndarray
p27
(I0
tp28
S'b'
p29
tp30
Rp31
(I1
(I3
tp32
g6
I00
S'\xf8\x05\x9d\xd0\n\x9b\x83@\x98N\x81bdi\x14@\xbaK\x19Tg\xe9@@'
p33
tp34
bsag2
(g6
S'@\x0f\\\xc0a\xe1\x84?'
p35
tp36
Rp37
aF1.0
a(dp38
a(lp39
g2
(g6
S'@u\xc45\xde!\xcc?'
p40
tp41
Rp42
ag2
(g6
S'\xe0\x1bAf\xae\x15\xcf?'
p43
tp44
Rp45
aa(dp46
S'ymin'
p47
F-9.059906005859375e-06
sg25
g26
(g27
(I0
tp48
g29
tp49
Rp50
(I1
(I3
tp51
g6
I00
S'k\xe49\x9ax\xb4\x83@\x86\xf7\xccc\xd4\xab\x14@E\x7f\x97\x89\xb9\xa1A@'
p52
tp53
bsaF2.7734670639038086
aF0.00015401840209960938
aF2.2577149868011475
aS'16:23:09  04-07-16'
p54
a.