(lp0
(lp1
cnumpy.core.multiarray
scalar
p2
(cnumpy
dtype
p3
(S'f8'
p4
I0
I1
tp5
Rp6
(I3
S'<'
p7
NNNI-1
I-1
I0
tp8
bS'p\xdaI\xed{\xff\xce?'
p9
tp10
Rp11
ag2
(g6
S'\xbcz\xc1\xccK\x94\xd2?'
p12
tp13
Rp14
aa(dp15
S's'
p16
F1e-09
sS'd'
p17
(lp18
Fnan
asa(dp19
g17
I2
sS'n'
p20
I43
sa(dp21
S'logEImin'
p22
F5.985470423932793
sS'DIRECTmessage'
p23
S'Number of function evaluations done is larger then maxf'
p24
sS'MAPHYP'
p25
cnumpy.core.multiarray
_reconstruct
p26
(cnumpy
ndarray
p27
(I0
tp28
S'b'
p29
tp30
Rp31
(I1
(I3
tp32
g6
I00
S'$\x00\xbd\xf1v`\x81@h\xa4&\xd8+\xd9\x0f@\xa5\x8d"\x9c\xc4L>@'
p33
tp34
bsag2
(g6
S'\xefG\x01?.\xd5\x11?'
p35
tp36
Rp37
aF1.0
a(dp38
a(lp39
Fnan
aFnan
aa(dp40
S'didnotrun'
p41
I01
saF1.400036096572876
aF0.00015306472778320312
aF5.888938903808594e-05
aS'16:21:31  04-07-16'
p42
a.