(lp0
(lp1
cnumpy.core.multiarray
scalar
p2
(cnumpy
dtype
p3
(S'f8'
p4
I0
I1
tp5
Rp6
(I3
S'<'
p7
NNNI-1
I-1
I0
tp8
bS'\xb8t\xe3\xf76Q\xcb?'
p9
tp10
Rp11
ag2
(g6
S'\xf0&\xd7\x1dU7\xcd?'
p12
tp13
Rp14
aa(dp15
S's'
p16
F1e-09
sS'd'
p17
(lp18
Fnan
asa(dp19
g17
I2
sS'n'
p20
I76
sa(dp21
S'logEImin'
p22
F9.848052581226835
sS'DIRECTmessage'
p23
S'Number of function evaluations done is larger then maxf'
p24
sS'MAPHYP'
p25
cnumpy.core.multiarray
_reconstruct
p26
(cnumpy
ndarray
p27
(I0
tp28
S'b'
p29
tp30
Rp31
(I1
(I3
tp32
g6
I00
S'k\xe49\x9ax\xb4\x83@\xc3\xd8\xbb?\xeeA\x14@\x04\x80\xfb^\x0eiA@'
p33
tp34
bsag2
(g6
S'V\xe4.\x1b\xe3\x8a\xed\xbe'
p35
tp36
Rp37
aF1.0
a(dp38
a(lp39
g2
(g6
S'@u\xc45\xde!\xcc?'
p40
tp41
Rp42
ag2
(g6
S' \xc6\x16\x83\xab\x1f\xcf?'
p43
tp44
Rp45
aa(dp46
S'ymin'
p47
F4.291534423828125e-06
sg25
g26
(g27
(I0
tp48
g29
tp49
Rp50
(I1
(I3
tp51
g6
I00
S'k\xe49\x9ax\xb4\x83@\x92\x91g~4\\\x14@L\xe8\xf1(UtA@'
p52
tp53
bsaF2.7904348373413086
aF0.00015807151794433594
aF2.222641944885254
aS'16:22:55  04-07-16'
p54
a.