(lp0
(lp1
cnumpy.core.multiarray
scalar
p2
(cnumpy
dtype
p3
(S'f8'
p4
I0
I1
tp5
Rp6
(I3
S'<'
p7
NNNI-1
I-1
I0
tp8
bS'\x98O\x08K]\t\xc0?'
p9
tp10
Rp11
ag2
(g6
S'pvu\x1a\x81e\xb3?'
p12
tp13
Rp14
aa(dp15
S's'
p16
F1e-09
sS'd'
p17
(lp18
Fnan
asa(dp19
g17
I2
sS'n'
p20
I81
sa(dp21
S'logEImin'
p22
F10.882551630877918
sS'DIRECTmessage'
p23
S'Number of function evaluations done is larger then maxf'
p24
sS'MAPHYP'
p25
cnumpy.core.multiarray
_reconstruct
p26
(cnumpy
ndarray
p27
(I0
tp28
S'b'
p29
tp30
Rp31
(I1
(I3
tp32
g6
I00
S'k\xe49\x9ax\xb4\x83@\x86\xf7\xccc\xd4\xab\x14@E\x7f\x97\x89\xb9\xa1A@'
p33
tp34
bsag2
(g6
S'B]f-\x9fX(?'
p35
tp36
Rp37
aF1.0
a(dp38
a(lp39
Fnan
aFnan
aa(dp40
S'didnotrun'
p41
I01
saF2.886216163635254
aF0.00016188621520996094
aF5.888938903808594e-05
aS'16:23:12  04-07-16'
p42
a.