(lp0
(lp1
cnumpy.core.multiarray
scalar
p2
(cnumpy
dtype
p3
(S'f8'
p4
I0
I1
tp5
Rp6
(I3
S'<'
p7
NNNI-1
I-1
I0
tp8
bS'T\xb9\xfe\xe8\\\xd4\xdb?'
p9
tp10
Rp11
ag2
(g6
S'\x92\\\xc8\r\xfc\xff\xef?'
p12
tp13
Rp14
aa(dp15
S's'
p16
F1e-09
sS'd'
p17
(lp18
Fnan
asa(dp19
g17
I2
sS'n'
p20
I28
sa(dp21
S'logEImin'
p22
F3.867893482578076
sS'DIRECTmessage'
p23
S'Number of function evaluations done is larger then maxf'
p24
sS'MAPHYP'
p25
cnumpy.core.multiarray
_reconstruct
p26
(cnumpy
ndarray
p27
(I0
tp28
S'b'
p29
tp30
Rp31
(I1
(I3
tp32
g6
I00
S'k\xe49\x9ax\xb4\x83@J\xde\x80\xf7\xc9m\x0f@\n&\xcf\xc8\xc0\xa0<@'
p33
tp34
bsag2
(g6
S'8o\xa5\x8e\x9d\x04\x82?'
p35
tp36
Rp37
aF1.0
a(dp38
a(lp39
g2
(g6
S'P\xe7\xd8\xa9\x9f\x84\xb9?'
p40
tp41
Rp42
ag2
(g6
S'\x80%\xf1\x91\x19\x06\xa9?'
p43
tp44
Rp45
aa(dp46
S'ymin'
p47
F-0.0026457253843545914
sg25
g26
(g27
(I0
tp48
g29
tp49
Rp50
(I1
(I3
tp51
g6
I00
S'k\xe49\x9ax\xb4\x83@\xdb\xb6\xf7\xa1\xc6\xa0\x0f@F\x0c\\\x1d\x85\xd8<@'
p52
tp53
bsaF0.8030910491943359
aF0.00015807151794433594
aF0.7034568786621094
aS'16:21:10  04-07-16'
p54
a.