(lp0
(lp1
cnumpy.core.multiarray
scalar
p2
(cnumpy
dtype
p3
(S'f8'
p4
I0
I1
tp5
Rp6
(I3
S'<'
p7
NNNI-1
I-1
I0
tp8
bS'\xa0\xfaI\x98!\xc3\xc7?'
p9
tp10
Rp11
ag2
(g6
S'H\x0f:0\xac\xe3\xc5?'
p12
tp13
Rp14
aa(dp15
S's'
p16
F1e-09
sS'd'
p17
(lp18
Fnan
asa(dp19
g17
I2
sS'n'
p20
I93
sa(dp21
S'logEImin'
p22
F12.407618030931188
sS'DIRECTmessage'
p23
S'Number of function evaluations done is larger then maxf'
p24
sS'MAPHYP'
p25
cnumpy.core.multiarray
_reconstruct
p26
(cnumpy
ndarray
p27
(I0
tp28
S'b'
p29
tp30
Rp31
(I1
(I3
tp32
g6
I00
S'\xf8\x05\x9d\xd0\n\x9b\x83@7\x85\xf4\xc0\xb7\x1e\x15@C\xcb\x81\xdc\x14\xf8A@'
p33
tp34
bsag2
(g6
S'\t*}\xec8\x04\xe1\xbe'
p35
tp36
Rp37
aF1.0
a(dp38
a(lp39
Fnan
aFnan
aa(dp40
S'didnotrun'
p41
I01
saF3.3887829780578613
aF0.00015306472778320312
aF5.793571472167969e-05
aS'16:23:59  04-07-16'
p42
a.