(lp0
(lp1
cnumpy.core.multiarray
scalar
p2
(cnumpy
dtype
p3
(S'f8'
p4
I0
I1
tp5
Rp6
(I3
S'<'
p7
NNNI-1
I-1
I0
tp8
bS'x\x86\x18\x0f\xf6l\xdb\xbf'
p9
tp10
Rp11
ag2
(g6
S'\xba\x15Y)\xf4\xff\xef?'
p12
tp13
Rp14
aa(dp15
S's'
p16
F1e-09
sS'd'
p17
(lp18
Fnan
asa(dp19
g17
I2
sS'n'
p20
I23
sa(dp21
S'logEImin'
p22
F3.2040846217078833
sS'DIRECTmessage'
p23
S'Number of function evaluations done is larger then maxf'
p24
sS'MAPHYP'
p25
cnumpy.core.multiarray
_reconstruct
p26
(cnumpy
ndarray
p27
(I0
tp28
S'b'
p29
tp30
Rp31
(I1
(I3
tp32
g6
I00
S'k\xe49\x9ax\xb4\x83@\xb3W\xd4w\xc9i\x0e@\x91\xc9\xd3S\xdd\xe0;@'
p33
tp34
bsag2
(g6
S'\xb2A\xe4\xdb\xccD\x9b?'
p35
tp36
Rp37
aF1.0
a(dp38
a(lp39
Fnan
aFnan
aa(dp40
S'didnotrun'
p41
I01
saF0.6792850494384766
aF0.00015497207641601562
aF4.506111145019531e-05
aS'16:21:04  04-07-16'
p42
a.