(lp0
(lp1
cnumpy.core.multiarray
scalar
p2
(cnumpy
dtype
p3
(S'f8'
p4
I0
I1
tp5
Rp6
(I3
S'<'
p7
NNNI-1
I-1
I0
tp8
bS'8\x1fE-lG\xe5\xbf'
p9
tp10
Rp11
ag2
(g6
S'\x90QDf\xca\x8f\xc1\xbf'
p12
tp13
Rp14
aa(dp15
S's'
p16
F1e-09
sS'd'
p17
(lp18
Fnan
asa(dp19
g17
I2
sS'n'
p20
I5
sa(dp21
ag2
(g6
S'\xcc$\xba\r\r\x9b+@'
p22
tp23
Rp24
aF1.0
a(dp25
a(lp26
Fnan
aFnan
aa(dp27
S'didnotrun'
p28
I01
saF4.601478576660156e-05
aF9.012222290039062e-05
aF4.1961669921875e-05
aS'16:20:51  04-07-16'
p29
a.