(lp0
(lp1
cnumpy.core.multiarray
scalar
p2
(cnumpy
dtype
p3
(S'f8'
p4
I0
I1
tp5
Rp6
(I3
S'<'
p7
NNNI-1
I-1
I0
tp8
bS'\xce$\xd6\x1aq\xe1\xdc\xbf'
p9
tp10
Rp11
ag2
(g6
S'\x92\\\xc8\r\xfc\xff\xef?'
p12
tp13
Rp14
aa(dp15
S's'
p16
F1e-09
sS'd'
p17
(lp18
Fnan
asa(dp19
g17
I2
sS'n'
p20
I78
sa(dp21
S'logEImin'
p22
F10.210036963749413
sS'DIRECTmessage'
p23
S'Number of function evaluations done is larger then maxf'
p24
sS'MAPHYP'
p25
cnumpy.core.multiarray
_reconstruct
p26
(cnumpy
ndarray
p27
(I0
tp28
S'b'
p29
tp30
Rp31
(I1
(I3
tp32
g6
I00
S'\xf8\x05\x9d\xd0\n\x9b\x83@\x98N\x81bdi\x14@\xbaK\x19Tg\xe9@@'
p33
tp34
bsag2
(g6
S'\xcf~&\xc8Oo\x87?'
p35
tp36
Rp37
aF1.0
a(dp38
a(lp39
Fnan
aFnan
aa(dp40
S'didnotrun'
p41
I01
saF2.8380091190338135
aF0.00015497207641601562
aF4.601478576660156e-05
aS'16:23:01  04-07-16'
p42
a.