(lp0
(lp1
cnumpy.core.multiarray
scalar
p2
(cnumpy
dtype
p3
(S'f8'
p4
I0
I1
tp5
Rp6
(I3
S'<'
p7
NNNI-1
I-1
I0
tp8
bS' z6\r\x8b\xf9\xcb?'
p9
tp10
Rp11
ag2
(g6
S'`"\xeaOVe\xce?'
p12
tp13
Rp14
aa(dp15
S's'
p16
F1e-09
sS'd'
p17
(lp18
Fnan
asa(dp19
g17
I2
sS'n'
p20
I92
sa(dp21
S'logEImin'
p22
F12.726250982741487
sS'DIRECTmessage'
p23
S'Number of function evaluations done is larger then maxf'
p24
sS'MAPHYP'
p25
cnumpy.core.multiarray
_reconstruct
p26
(cnumpy
ndarray
p27
(I0
tp28
S'b'
p29
tp30
Rp31
(I1
(I3
tp32
g6
I00
S'\xf8\x05\x9d\xd0\n\x9b\x83@~\x078\x81C\n\x15@r\x9f\xd3T\xb5\x97B@'
p33
tp34
bsag2
(g6
S'l\xb1\x1d\xe1\x1a\xdc\xf7>'
p35
tp36
Rp37
aF1.0
a(dp38
a(lp39
g2
(g6
S'@u\xc45\xde!\xcc?'
p40
tp41
Rp42
ag2
(g6
S'\x88\xa9\x08\xe2\xff"\xcf?'
p43
tp44
Rp45
aa(dp46
S'ymin'
p47
F1.9073486328125e-06
sg25
g26
(g27
(I0
tp48
g29
tp49
Rp50
(I1
(I3
tp51
g6
I00
S'\xf8\x05\x9d\xd0\n\x9b\x83@7\x85\xf4\xc0\xb7\x1e\x15@C\xcb\x81\xdc\x14\xf8A@'
p52
tp53
bsaF3.3643040657043457
aF0.0001571178436279297
aF2.753368854522705
aS'16:23:55  04-07-16'
p54
a.